Archive member included to satisfy reference by file (symbol)

c:/program files (x86)/atmel/studio/7.0/toolchain/avr8/avr8-gnu-toolchain/bin/../lib/gcc/avr/5.4.0/../../../../avr/lib/avrxmega6\libprintf_flt.a(vfprintf_flt.o)
                              (vfprintf)
../../../../../RTB/RTB_Lib/AT86RF233_ATXMEGA256A3_REB_8_1_CBB/GCC\lib_rtb_pmu_233r_remote.a(rtb_pmu_math.o)
                              ./rtb.o (pmu_math_pmu_2_dist)
../../../../../RTB/RTB_Lib/AT86RF233_ATXMEGA256A3_REB_8_1_CBB/GCC\lib_rtb_pmu_233r_remote.a(rtb_pmu_result.o)
                              ./rtb_rx.o (pmu_extract_no_of_req_result_values)
../../../../../RTB/RTB_Lib/AT86RF233_ATXMEGA256A3_REB_8_1_CBB/GCC\lib_rtb_pmu_233r_remote.a(rtb_pmu_233r.o)
                              ./rtb.o (pmu_configure_ranging)
c:/program files (x86)/atmel/studio/7.0/toolchain/avr8/avr8-gnu-toolchain/bin/../lib/gcc/avr/5.4.0/../../../../avr/lib/avrxmega6\libm.a(addsf3.o)
                              ../../../../../RTB/RTB_Lib/AT86RF233_ATXMEGA256A3_REB_8_1_CBB/GCC\lib_rtb_pmu_233r_remote.a(rtb_pmu_math.o) (__subsf3)
c:/program files (x86)/atmel/studio/7.0/toolchain/avr8/avr8-gnu-toolchain/bin/../lib/gcc/avr/5.4.0/../../../../avr/lib/avrxmega6\libm.a(addsf3x.o)
                              c:/program files (x86)/atmel/studio/7.0/toolchain/avr8/avr8-gnu-toolchain/bin/../lib/gcc/avr/5.4.0/../../../../avr/lib/avrxmega6\libm.a(addsf3.o) (__addsf3x)
c:/program files (x86)/atmel/studio/7.0/toolchain/avr8/avr8-gnu-toolchain/bin/../lib/gcc/avr/5.4.0/../../../../avr/lib/avrxmega6\libm.a(ceil.o)
                              ../../../../../RTB/RTB_Lib/AT86RF233_ATXMEGA256A3_REB_8_1_CBB/GCC\lib_rtb_pmu_233r_remote.a(rtb_pmu_math.o) (ceil)
c:/program files (x86)/atmel/studio/7.0/toolchain/avr8/avr8-gnu-toolchain/bin/../lib/gcc/avr/5.4.0/../../../../avr/lib/avrxmega6\libm.a(cmpsf2.o)
                              ../../../../../RTB/RTB_Lib/AT86RF233_ATXMEGA256A3_REB_8_1_CBB/GCC\lib_rtb_pmu_233r_remote.a(rtb_pmu_math.o) (__ltsf2)
c:/program files (x86)/atmel/studio/7.0/toolchain/avr8/avr8-gnu-toolchain/bin/../lib/gcc/avr/5.4.0/../../../../avr/lib/avrxmega6\libm.a(divsf3.o)
                              ./rtb_eval_app_ranging.o (__divsf3)
c:/program files (x86)/atmel/studio/7.0/toolchain/avr8/avr8-gnu-toolchain/bin/../lib/gcc/avr/5.4.0/../../../../avr/lib/avrxmega6\libm.a(divsf3x.o)
                              c:/program files (x86)/atmel/studio/7.0/toolchain/avr8/avr8-gnu-toolchain/bin/../lib/gcc/avr/5.4.0/../../../../avr/lib/avrxmega6\libm.a(divsf3.o) (__divsf3x)
c:/program files (x86)/atmel/studio/7.0/toolchain/avr8/avr8-gnu-toolchain/bin/../lib/gcc/avr/5.4.0/../../../../avr/lib/avrxmega6\libm.a(fixsfsi.o)
                              ./rtb_eval_app_ranging.o (__fixsfsi)
c:/program files (x86)/atmel/studio/7.0/toolchain/avr8/avr8-gnu-toolchain/bin/../lib/gcc/avr/5.4.0/../../../../avr/lib/avrxmega6\libm.a(fixunssfsi.o)
                              ./rtb_eval_app_ranging.o (__fixunssfsi)
c:/program files (x86)/atmel/studio/7.0/toolchain/avr8/avr8-gnu-toolchain/bin/../lib/gcc/avr/5.4.0/../../../../avr/lib/avrxmega6\libm.a(floatsisf.o)
                              ./rtb_eval_app_ranging.o (__floatunsisf)
c:/program files (x86)/atmel/studio/7.0/toolchain/avr8/avr8-gnu-toolchain/bin/../lib/gcc/avr/5.4.0/../../../../avr/lib/avrxmega6\libm.a(fp_cmp.o)
                              c:/program files (x86)/atmel/studio/7.0/toolchain/avr8/avr8-gnu-toolchain/bin/../lib/gcc/avr/5.4.0/../../../../avr/lib/avrxmega6\libm.a(cmpsf2.o) (__fp_cmp)
c:/program files (x86)/atmel/studio/7.0/toolchain/avr8/avr8-gnu-toolchain/bin/../lib/gcc/avr/5.4.0/../../../../avr/lib/avrxmega6\libm.a(fp_inf.o)
                              c:/program files (x86)/atmel/studio/7.0/toolchain/avr8/avr8-gnu-toolchain/bin/../lib/gcc/avr/5.4.0/../../../../avr/lib/avrxmega6\libm.a(addsf3x.o) (__fp_inf)
c:/program files (x86)/atmel/studio/7.0/toolchain/avr8/avr8-gnu-toolchain/bin/../lib/gcc/avr/5.4.0/../../../../avr/lib/avrxmega6\libm.a(fp_mintl.o)
                              c:/program files (x86)/atmel/studio/7.0/toolchain/avr8/avr8-gnu-toolchain/bin/../lib/gcc/avr/5.4.0/../../../../avr/lib/avrxmega6\libm.a(ceil.o) (__fp_mintl)
c:/program files (x86)/atmel/studio/7.0/toolchain/avr8/avr8-gnu-toolchain/bin/../lib/gcc/avr/5.4.0/../../../../avr/lib/avrxmega6\libm.a(fp_mpack.o)
                              c:/program files (x86)/atmel/studio/7.0/toolchain/avr8/avr8-gnu-toolchain/bin/../lib/gcc/avr/5.4.0/../../../../avr/lib/avrxmega6\libm.a(ceil.o) (__fp_mpack)
c:/program files (x86)/atmel/studio/7.0/toolchain/avr8/avr8-gnu-toolchain/bin/../lib/gcc/avr/5.4.0/../../../../avr/lib/avrxmega6\libm.a(fp_nan.o)
                              c:/program files (x86)/atmel/studio/7.0/toolchain/avr8/avr8-gnu-toolchain/bin/../lib/gcc/avr/5.4.0/../../../../avr/lib/avrxmega6\libm.a(addsf3x.o) (__fp_nan)
c:/program files (x86)/atmel/studio/7.0/toolchain/avr8/avr8-gnu-toolchain/bin/../lib/gcc/avr/5.4.0/../../../../avr/lib/avrxmega6\libm.a(fp_pscA.o)
                              c:/program files (x86)/atmel/studio/7.0/toolchain/avr8/avr8-gnu-toolchain/bin/../lib/gcc/avr/5.4.0/../../../../avr/lib/avrxmega6\libm.a(addsf3x.o) (__fp_pscA)
c:/program files (x86)/atmel/studio/7.0/toolchain/avr8/avr8-gnu-toolchain/bin/../lib/gcc/avr/5.4.0/../../../../avr/lib/avrxmega6\libm.a(fp_pscB.o)
                              c:/program files (x86)/atmel/studio/7.0/toolchain/avr8/avr8-gnu-toolchain/bin/../lib/gcc/avr/5.4.0/../../../../avr/lib/avrxmega6\libm.a(addsf3x.o) (__fp_pscB)
c:/program files (x86)/atmel/studio/7.0/toolchain/avr8/avr8-gnu-toolchain/bin/../lib/gcc/avr/5.4.0/../../../../avr/lib/avrxmega6\libm.a(fp_round.o)
                              c:/program files (x86)/atmel/studio/7.0/toolchain/avr8/avr8-gnu-toolchain/bin/../lib/gcc/avr/5.4.0/../../../../avr/lib/avrxmega6\libm.a(addsf3.o) (__fp_round)
c:/program files (x86)/atmel/studio/7.0/toolchain/avr8/avr8-gnu-toolchain/bin/../lib/gcc/avr/5.4.0/../../../../avr/lib/avrxmega6\libm.a(fp_split3.o)
                              c:/program files (x86)/atmel/studio/7.0/toolchain/avr8/avr8-gnu-toolchain/bin/../lib/gcc/avr/5.4.0/../../../../avr/lib/avrxmega6\libm.a(addsf3x.o) (__fp_split3)
c:/program files (x86)/atmel/studio/7.0/toolchain/avr8/avr8-gnu-toolchain/bin/../lib/gcc/avr/5.4.0/../../../../avr/lib/avrxmega6\libm.a(fp_trunc.o)
                              c:/program files (x86)/atmel/studio/7.0/toolchain/avr8/avr8-gnu-toolchain/bin/../lib/gcc/avr/5.4.0/../../../../avr/lib/avrxmega6\libm.a(ceil.o) (__fp_trunc)
c:/program files (x86)/atmel/studio/7.0/toolchain/avr8/avr8-gnu-toolchain/bin/../lib/gcc/avr/5.4.0/../../../../avr/lib/avrxmega6\libm.a(fp_zero.o)
                              c:/program files (x86)/atmel/studio/7.0/toolchain/avr8/avr8-gnu-toolchain/bin/../lib/gcc/avr/5.4.0/../../../../avr/lib/avrxmega6\libm.a(addsf3x.o) (__fp_zero)
c:/program files (x86)/atmel/studio/7.0/toolchain/avr8/avr8-gnu-toolchain/bin/../lib/gcc/avr/5.4.0/../../../../avr/lib/avrxmega6\libm.a(gesf2.o)
                              ../../../../../RTB/RTB_Lib/AT86RF233_ATXMEGA256A3_REB_8_1_CBB/GCC\lib_rtb_pmu_233r_remote.a(rtb_pmu_math.o) (__gtsf2)
c:/program files (x86)/atmel/studio/7.0/toolchain/avr8/avr8-gnu-toolchain/bin/../lib/gcc/avr/5.4.0/../../../../avr/lib/avrxmega6\libm.a(mulsf3.o)
                              ./rtb_eval_app.o (__mulsf3)
c:/program files (x86)/atmel/studio/7.0/toolchain/avr8/avr8-gnu-toolchain/bin/../lib/gcc/avr/5.4.0/../../../../avr/lib/avrxmega6\libm.a(mulsf3x.o)
                              c:/program files (x86)/atmel/studio/7.0/toolchain/avr8/avr8-gnu-toolchain/bin/../lib/gcc/avr/5.4.0/../../../../avr/lib/avrxmega6\libm.a(mulsf3.o) (__mulsf3x)
c:/program files (x86)/atmel/studio/7.0/toolchain/avr8/avr8-gnu-toolchain/bin/../lib/gcc/avr/5.4.0/../../../../avr/lib/avrxmega6\libm.a(round.o)
                              ./rtb_eval_app_ranging.o (round)
c:/program files (x86)/atmel/studio/7.0/toolchain/avr8/avr8-gnu-toolchain/bin/../lib/gcc/avr/5.4.0/avrxmega6\libgcc.a(_mulsi3.o)
                              ../../../../../RTB/RTB_Lib/AT86RF233_ATXMEGA256A3_REB_8_1_CBB/GCC\lib_rtb_pmu_233r_remote.a(rtb_pmu_math.o) (__mulsi3)
c:/program files (x86)/atmel/studio/7.0/toolchain/avr8/avr8-gnu-toolchain/bin/../lib/gcc/avr/5.4.0/avrxmega6\libgcc.a(_udivmodhi4.o)
                              ./rtb_eval_app_ranging.o (__udivmodhi4)
c:/program files (x86)/atmel/studio/7.0/toolchain/avr8/avr8-gnu-toolchain/bin/../lib/gcc/avr/5.4.0/avrxmega6\libgcc.a(_divmodhi4.o)
                              ../../../../../RTB/RTB_Lib/AT86RF233_ATXMEGA256A3_REB_8_1_CBB/GCC\lib_rtb_pmu_233r_remote.a(rtb_pmu_math.o) (__divmodhi4)
c:/program files (x86)/atmel/studio/7.0/toolchain/avr8/avr8-gnu-toolchain/bin/../lib/gcc/avr/5.4.0/avrxmega6\libgcc.a(_udivmodsi4.o)
                              ./rtb_eval_app_ranging.o (__udivmodsi4)
c:/program files (x86)/atmel/studio/7.0/toolchain/avr8/avr8-gnu-toolchain/bin/../lib/gcc/avr/5.4.0/avrxmega6\libgcc.a(_exit.o)
                              c:/program files (x86)/atmel/studio/7.0/toolchain/avr8/avr8-gnu-toolchain/bin/../lib/gcc/avr/5.4.0/../../../../avr/lib/avrxmega6/crtatxmega256a3.o (exit)
c:/program files (x86)/atmel/studio/7.0/toolchain/avr8/avr8-gnu-toolchain/bin/../lib/gcc/avr/5.4.0/avrxmega6\libgcc.a(_tablejump2.o)
                              ./rtb_eval_app.o (__tablejump2__)
c:/program files (x86)/atmel/studio/7.0/toolchain/avr8/avr8-gnu-toolchain/bin/../lib/gcc/avr/5.4.0/avrxmega6\libgcc.a(_copy_data.o)
                              ./rtb_eval_app.o (__do_copy_data)
c:/program files (x86)/atmel/studio/7.0/toolchain/avr8/avr8-gnu-toolchain/bin/../lib/gcc/avr/5.4.0/avrxmega6\libgcc.a(_clear_bss.o)
                              ./rtb_eval_app.o (__do_clear_bss)
c:/program files (x86)/atmel/studio/7.0/toolchain/avr8/avr8-gnu-toolchain/bin/../lib/gcc/avr/5.4.0/avrxmega6\libgcc.a(_muluhisi3.o)
                              c:/program files (x86)/atmel/studio/7.0/toolchain/avr8/avr8-gnu-toolchain/bin/../lib/gcc/avr/5.4.0/avrxmega6\libgcc.a(_mulsi3.o) (__muluhisi3)
c:/program files (x86)/atmel/studio/7.0/toolchain/avr8/avr8-gnu-toolchain/bin/../lib/gcc/avr/5.4.0/avrxmega6\libgcc.a(_ashrdi3.o)
                              ./rtb_eval_app.o (__lshrdi3)
c:/program files (x86)/atmel/studio/7.0/toolchain/avr8/avr8-gnu-toolchain/bin/../lib/gcc/avr/5.4.0/avrxmega6\libgcc.a(_adddi3_s8.o)
                              ./tal_init.o (__adddi3_s8)
c:/program files (x86)/atmel/studio/7.0/toolchain/avr8/avr8-gnu-toolchain/bin/../lib/gcc/avr/5.4.0/avrxmega6\libgcc.a(_cmpdi2.o)
                              ./mac_mcps_data.o (__cmpdi2)
c:/program files (x86)/atmel/studio/7.0/toolchain/avr8/avr8-gnu-toolchain/bin/../lib/gcc/avr/5.4.0/avrxmega6\libgcc.a(_cmpdi2_s8.o)
                              ./tal_init.o (__cmpdi2_s8)
c:/program files (x86)/atmel/studio/7.0/toolchain/avr8/avr8-gnu-toolchain/bin/../lib/gcc/avr/5.4.0/avrxmega6\libgcc.a(_umulhisi3.o)
                              c:/program files (x86)/atmel/studio/7.0/toolchain/avr8/avr8-gnu-toolchain/bin/../lib/gcc/avr/5.4.0/avrxmega6\libgcc.a(_muluhisi3.o) (__umulhisi3)
c:/program files (x86)/atmel/studio/7.0/toolchain/avr8/avr8-gnu-toolchain/bin/../lib/gcc/avr/5.4.0/../../../../avr/lib/avrxmega6\libc.a(qsort.o)
                              ./rtb_eval_app_ranging.o (qsort)
c:/program files (x86)/atmel/studio/7.0/toolchain/avr8/avr8-gnu-toolchain/bin/../lib/gcc/avr/5.4.0/../../../../avr/lib/avrxmega6\libc.a(rand.o)
                              ./tal_init.o (rand)
c:/program files (x86)/atmel/studio/7.0/toolchain/avr8/avr8-gnu-toolchain/bin/../lib/gcc/avr/5.4.0/../../../../avr/lib/avrxmega6\libc.a(atoi.o)
                              ./rtb_eval_app_param.o (atoi)
c:/program files (x86)/atmel/studio/7.0/toolchain/avr8/avr8-gnu-toolchain/bin/../lib/gcc/avr/5.4.0/../../../../avr/lib/avrxmega6\libc.a(ftoa_engine.o)
                              c:/program files (x86)/atmel/studio/7.0/toolchain/avr8/avr8-gnu-toolchain/bin/../lib/gcc/avr/5.4.0/../../../../avr/lib/avrxmega6\libprintf_flt.a(vfprintf_flt.o) (__ftoa_engine)
c:/program files (x86)/atmel/studio/7.0/toolchain/avr8/avr8-gnu-toolchain/bin/../lib/gcc/avr/5.4.0/../../../../avr/lib/avrxmega6\libc.a(strnlen_P.o)
                              c:/program files (x86)/atmel/studio/7.0/toolchain/avr8/avr8-gnu-toolchain/bin/../lib/gcc/avr/5.4.0/../../../../avr/lib/avrxmega6\libprintf_flt.a(vfprintf_flt.o) (strnlen_P)
c:/program files (x86)/atmel/studio/7.0/toolchain/avr8/avr8-gnu-toolchain/bin/../lib/gcc/avr/5.4.0/../../../../avr/lib/avrxmega6\libc.a(memcpy.o)
                              ./mac_api.o (memcpy)
c:/program files (x86)/atmel/studio/7.0/toolchain/avr8/avr8-gnu-toolchain/bin/../lib/gcc/avr/5.4.0/../../../../avr/lib/avrxmega6\libc.a(strnlen.o)
                              c:/program files (x86)/atmel/studio/7.0/toolchain/avr8/avr8-gnu-toolchain/bin/../lib/gcc/avr/5.4.0/../../../../avr/lib/avrxmega6\libprintf_flt.a(vfprintf_flt.o) (strnlen)
c:/program files (x86)/atmel/studio/7.0/toolchain/avr8/avr8-gnu-toolchain/bin/../lib/gcc/avr/5.4.0/../../../../avr/lib/avrxmega6\libc.a(mul10.o)
                              c:/program files (x86)/atmel/studio/7.0/toolchain/avr8/avr8-gnu-toolchain/bin/../lib/gcc/avr/5.4.0/../../../../avr/lib/avrxmega6\libc.a(atoi.o) (__mulhi_const_10)
c:/program files (x86)/atmel/studio/7.0/toolchain/avr8/avr8-gnu-toolchain/bin/../lib/gcc/avr/5.4.0/../../../../avr/lib/avrxmega6\libc.a(fdevopen.o)
                              ./rtb_eval_app.o (fdevopen)
c:/program files (x86)/atmel/studio/7.0/toolchain/avr8/avr8-gnu-toolchain/bin/../lib/gcc/avr/5.4.0/../../../../avr/lib/avrxmega6\libc.a(fputc.o)
                              c:/program files (x86)/atmel/studio/7.0/toolchain/avr8/avr8-gnu-toolchain/bin/../lib/gcc/avr/5.4.0/../../../../avr/lib/avrxmega6\libprintf_flt.a(vfprintf_flt.o) (fputc)
c:/program files (x86)/atmel/studio/7.0/toolchain/avr8/avr8-gnu-toolchain/bin/../lib/gcc/avr/5.4.0/../../../../avr/lib/avrxmega6\libc.a(iob.o)
                              c:/program files (x86)/atmel/studio/7.0/toolchain/avr8/avr8-gnu-toolchain/bin/../lib/gcc/avr/5.4.0/../../../../avr/lib/avrxmega6\libc.a(fdevopen.o) (__iob)
c:/program files (x86)/atmel/studio/7.0/toolchain/avr8/avr8-gnu-toolchain/bin/../lib/gcc/avr/5.4.0/../../../../avr/lib/avrxmega6\libc.a(printf.o)
                              ./rtb_eval_app.o (printf)
c:/program files (x86)/atmel/studio/7.0/toolchain/avr8/avr8-gnu-toolchain/bin/../lib/gcc/avr/5.4.0/../../../../avr/lib/avrxmega6\libc.a(putchar.o)
                              ./rtb_eval_app.o (putchar)
c:/program files (x86)/atmel/studio/7.0/toolchain/avr8/avr8-gnu-toolchain/bin/../lib/gcc/avr/5.4.0/../../../../avr/lib/avrxmega6\libc.a(puts.o)
                              ./rtb_eval_app.o (puts)
c:/program files (x86)/atmel/studio/7.0/toolchain/avr8/avr8-gnu-toolchain/bin/../lib/gcc/avr/5.4.0/../../../../avr/lib/avrxmega6\libc.a(ultoa_invert.o)
                              c:/program files (x86)/atmel/studio/7.0/toolchain/avr8/avr8-gnu-toolchain/bin/../lib/gcc/avr/5.4.0/../../../../avr/lib/avrxmega6\libprintf_flt.a(vfprintf_flt.o) (__ultoa_invert)
c:/program files (x86)/atmel/studio/7.0/toolchain/avr8/avr8-gnu-toolchain/bin/../lib/gcc/avr/5.4.0/../../../../avr/lib/avrxmega6\libc.a(calloc.o)
                              c:/program files (x86)/atmel/studio/7.0/toolchain/avr8/avr8-gnu-toolchain/bin/../lib/gcc/avr/5.4.0/../../../../avr/lib/avrxmega6\libc.a(fdevopen.o) (calloc)
c:/program files (x86)/atmel/studio/7.0/toolchain/avr8/avr8-gnu-toolchain/bin/../lib/gcc/avr/5.4.0/../../../../avr/lib/avrxmega6\libc.a(malloc.o)
                              c:/program files (x86)/atmel/studio/7.0/toolchain/avr8/avr8-gnu-toolchain/bin/../lib/gcc/avr/5.4.0/../../../../avr/lib/avrxmega6\libc.a(calloc.o) (malloc)
c:/program files (x86)/atmel/studio/7.0/toolchain/avr8/avr8-gnu-toolchain/bin/../lib/gcc/avr/5.4.0/../../../../avr/lib/avrxmega6\libc.a(memset.o)
                              c:/program files (x86)/atmel/studio/7.0/toolchain/avr8/avr8-gnu-toolchain/bin/../lib/gcc/avr/5.4.0/../../../../avr/lib/avrxmega6\libc.a(calloc.o) (memset)
c:/program files (x86)/atmel/studio/7.0/toolchain/avr8/avr8-gnu-toolchain/bin/../lib/gcc/avr/5.4.0/avrxmega6\libgcc.a(_divmodsi4.o)
                              c:/program files (x86)/atmel/studio/7.0/toolchain/avr8/avr8-gnu-toolchain/bin/../lib/gcc/avr/5.4.0/../../../../avr/lib/avrxmega6\libc.a(rand.o) (__divmodsi4)
c:/program files (x86)/atmel/studio/7.0/toolchain/avr8/avr8-gnu-toolchain/bin/../lib/gcc/avr/5.4.0/avrxmega6\libgcc.a(_negsi2.o)
                              c:/program files (x86)/atmel/studio/7.0/toolchain/avr8/avr8-gnu-toolchain/bin/../lib/gcc/avr/5.4.0/avrxmega6\libgcc.a(_divmodsi4.o) (__negsi2)
c:/program files (x86)/atmel/studio/7.0/toolchain/avr8/avr8-gnu-toolchain/bin/../lib/gcc/avr/5.4.0/avrxmega6\libgcc.a(_mulshisi3.o)
                              c:/program files (x86)/atmel/studio/7.0/toolchain/avr8/avr8-gnu-toolchain/bin/../lib/gcc/avr/5.4.0/../../../../avr/lib/avrxmega6\libc.a(rand.o) (__mulohisi3)

Allocating common symbols
Common symbol       size              file

tal_rtb_q           0x5               ./rtb.o
mac_last_dsn        0x1               ./mac.o
mac_nhle_q          0x5               ./mac_api.o
rtb_pib             0xe               ./rtb_pib.o
sys_time            0x2               ./pal.o
range_status_pmu    0x15              ./rtb.o
mac_last_src_addr   0x8               ./mac.o
tal_rx_on_required  0x1               ./tal.o
range_status        0x7               ./rtb.o
mac_poll_state      0x1               ./mac.o
nhle_mac_q          0x5               ./mac.o
tal_incoming_frame_queue
                    0x5               ./tal.o
__brkval            0x2               c:/program files (x86)/atmel/studio/7.0/toolchain/avr8/avr8-gnu-toolchain/bin/../lib/gcc/avr/5.4.0/../../../../avr/lib/avrxmega6\libc.a(malloc.o)
mac_scan_state      0x1               ./mac.o
app_data            0x2c              ./rtb_eval_app.o
timer_array         0x1b              ./pal_timer.o
mac_sync_state      0x1               ./mac.o
pmu_valid_vector    0x1dc             ../../../../../RTB/RTB_Lib/AT86RF233_ATXMEGA256A3_REB_8_1_CBB/GCC\lib_rtb_pmu_233r_remote.a(rtb_pmu_math.o)
mac_frame_ptr       0x2               ./tal.o
uart_0_buffer       0xd8              ./pal_uart.o
range_pmu_result_data
                    0x969             ../../../../../RTB/RTB_Lib/AT86RF233_ATXMEGA256A3_REB_8_1_CBB/GCC\lib_rtb_pmu_233r_remote.a(rtb_pmu_result.o)
mac_conf_buf_ptr    0x2               ./mac.o
build_no_end        0x2               ./rtb_eval_app.o
mac_pib             0x11              ./mac.o
rtb_static_frame_buffer
                    0x96              ./rtb.o
mac_rx_enabled      0x1               ./mac.o
tal_mac_q           0x5               ./mac.o
orig_tal_transmit_power
                    0x1               ./rtb.o
build_no_start      0x2               ./rtb_eval_app.o
req_result_type     0x1               ./rtb.o
tal_pib             0x1d              ./tal.o
range_fec           0x5               ../../../../../RTB/RTB_Lib/AT86RF233_ATXMEGA256A3_REB_8_1_CBB/GCC\lib_rtb_pmu_233r_remote.a(rtb_pmu_result.o)
mac_parse_data      0x27              ./mac.o
tal_trx_status      0x1               ./tal.o
range_param_pmu     0xb               ./rtb.o
last_frame_length   0x1               ./tal.o
build_no            0x14              ./rtb_eval_app.o
swOcrValue          0x1               ./rtb_hw_233r_xmega.o
tal_frame_to_tx     0x2               ./tal.o
mac_state           0x1               ./mac.o
__flp               0x2               c:/program files (x86)/atmel/studio/7.0/toolchain/avr8/avr8-gnu-toolchain/bin/../lib/gcc/avr/5.4.0/../../../../avr/lib/avrxmega6\libc.a(malloc.o)
mac_busy            0x1               ./mac.o
tal_awake_end_flag  0x1               ./tal.o
__iob               0x6               c:/program files (x86)/atmel/studio/7.0/toolchain/avr8/avr8-gnu-toolchain/bin/../lib/gcc/avr/5.4.0/../../../../avr/lib/avrxmega6\libc.a(iob.o)
pmu_avg_data        0x8               ./rtb.o
mac_radio_sleep_state
                    0x1               ./mac.o
last_rtb_state      0x1               ./rtb.o
range_param         0x25              ./rtb.o
tal_state           0x1               ./tal.o

Memory Configuration

Name             Origin             Length             Attributes
text             0x00000000         0x00042000         xr
data             0x00802000         0x00004000         rw !x
eeprom           0x00810000         0x00001000         rw !x
fuse             0x00820000         0x00000006         rw !x
lock             0x00830000         0x00000400         rw !x
signature        0x00840000         0x00000400         rw !x
user_signatures  0x00850000         0x00000400         rw !x
*default*        0x00000000         0xffffffff

Linker script and memory map

LOAD c:/program files (x86)/atmel/studio/7.0/toolchain/avr8/avr8-gnu-toolchain/bin/../lib/gcc/avr/5.4.0/../../../../avr/lib/avrxmega6/crtatxmega256a3.o
LOAD c:/program files (x86)/atmel/studio/7.0/toolchain/avr8/avr8-gnu-toolchain/bin/../lib/gcc/avr/5.4.0/../../../../avr/lib/avrxmega6\libprintf_flt.a
LOAD c:/program files (x86)/atmel/studio/7.0/toolchain/avr8/avr8-gnu-toolchain/bin/../lib/gcc/avr/5.4.0/../../../../avr/lib/avrxmega6\libm.a
LOAD ./rtb_eval_app.o
LOAD ./rtb_eval_app_param.o
LOAD ./rtb_eval_app_ranging.o
LOAD ./sio_handler.o
LOAD ./pal_uart.o
LOAD ./pal_sio_hub.o
LOAD ./pal_irq.o
LOAD ./pal.o
LOAD ./pal_timer.o
LOAD ./pal_board.o
LOAD ./pal_utils.o
LOAD ./pal_trx_access.o
LOAD ./bmm.o
LOAD ./qmm.o
LOAD ./tal.o
LOAD ./tal_rx.o
LOAD ./tal_tx.o
LOAD ./tal_ed.o
LOAD ./tal_slotted_csma.o
LOAD ./tal_pib.o
LOAD ./tal_init.o
LOAD ./tal_irq_handler.o
LOAD ./tal_pwr_mgmt.o
LOAD ./tal_rx_enable.o
LOAD ./mac_api.o
LOAD ./mac_associate.o
LOAD ./mac_beacon.o
LOAD ./mac_callback_wrapper.o
LOAD ./mac_data_extract_mhr.o
LOAD ./mac_data_ind.o
LOAD ./mac_data_req.o
LOAD ./mac_dispatcher.o
LOAD ./mac.o
LOAD ./mac_mcps_data.o
LOAD ./mac_misc.o
LOAD ./mac_orphan.o
LOAD ./mac_pib.o
LOAD ./mac_poll.o
LOAD ./mac_process_beacon_frame.o
LOAD ./mac_process_tal_tx_frame_status.o
LOAD ./mac_rx_enable.o
LOAD ./mac_scan.o
LOAD ./mac_start.o
LOAD ./mac_tx_coord_realignment_command.o
LOAD ./rtb.o
LOAD ./rtb_api.o
LOAD ./rtb_callback_wrapper.o
LOAD ./rtb_dispatcher.o
LOAD ./rtb_hw_233r_xmega.o
LOAD ./rtb_pib.o
LOAD ./rtb_rx.o
LOAD ./rtb_tx.o
LOAD ./usr_mcps_data_conf.o
LOAD ./usr_mcps_data_ind.o
LOAD ./usr_mlme_associate_conf.o
LOAD ./usr_mlme_associate_ind.o
LOAD ./usr_mlme_comm_status_ind.o
LOAD ./usr_mlme_get_conf.o
LOAD ./usr_mlme_orphan_ind.o
LOAD ./usr_mlme_poll_conf.o
LOAD ./usr_mlme_rx_enable_conf.o
LOAD ./usr_mlme_scan_conf.o
LOAD ./usr_mlme_start_conf.o
LOAD ../../../../../RTB/RTB_Lib/AT86RF233_ATXMEGA256A3_REB_8_1_CBB/GCC\lib_rtb_pmu_233r_remote.a
LOAD c:/program files (x86)/atmel/studio/7.0/toolchain/avr8/avr8-gnu-toolchain/bin/../lib/gcc/avr/5.4.0/../../../../avr/lib/avrxmega6\libm.a
START GROUP
LOAD c:/program files (x86)/atmel/studio/7.0/toolchain/avr8/avr8-gnu-toolchain/bin/../lib/gcc/avr/5.4.0/avrxmega6\libgcc.a
LOAD c:/program files (x86)/atmel/studio/7.0/toolchain/avr8/avr8-gnu-toolchain/bin/../lib/gcc/avr/5.4.0/../../../../avr/lib/avrxmega6\libm.a
LOAD c:/program files (x86)/atmel/studio/7.0/toolchain/avr8/avr8-gnu-toolchain/bin/../lib/gcc/avr/5.4.0/../../../../avr/lib/avrxmega6\libc.a
LOAD c:/program files (x86)/atmel/studio/7.0/toolchain/avr8/avr8-gnu-toolchain/bin/../lib/gcc/avr/5.4.0/../../../../avr/lib/avrxmega6\libatxmega256a3.a
END GROUP
                0x00000000                __TEXT_REGION_ORIGIN__ = DEFINED (__TEXT_REGION_ORIGIN__)?__TEXT_REGION_ORIGIN__:0x0
                [0x00802000]                __DATA_REGION_ORIGIN__ = DEFINED (__DATA_REGION_ORIGIN__)?__DATA_REGION_ORIGIN__:0x802000
                [0x00042000]                __TEXT_REGION_LENGTH__ = DEFINED (__TEXT_REGION_LENGTH__)?__TEXT_REGION_LENGTH__:0x100000
                [0x00004000]                __DATA_REGION_LENGTH__ = DEFINED (__DATA_REGION_LENGTH__)?__DATA_REGION_LENGTH__:0xffa0
                [0x00001000]                __EEPROM_REGION_LENGTH__ = DEFINED (__EEPROM_REGION_LENGTH__)?__EEPROM_REGION_LENGTH__:0x10000
                [0x00000006]                __FUSE_REGION_LENGTH__ = DEFINED (__FUSE_REGION_LENGTH__)?__FUSE_REGION_LENGTH__:0x400
                0x00000400                __LOCK_REGION_LENGTH__ = DEFINED (__LOCK_REGION_LENGTH__)?__LOCK_REGION_LENGTH__:0x400
                0x00000400                __SIGNATURE_REGION_LENGTH__ = DEFINED (__SIGNATURE_REGION_LENGTH__)?__SIGNATURE_REGION_LENGTH__:0x400
                0x00000400                __USER_SIGNATURE_REGION_LENGTH__ = DEFINED (__USER_SIGNATURE_REGION_LENGTH__)?__USER_SIGNATURE_REGION_LENGTH__:0x400

.hash
 *(.hash)

.dynsym
 *(.dynsym)

.dynstr
 *(.dynstr)

.gnu.version
 *(.gnu.version)

.gnu.version_d
 *(.gnu.version_d)

.gnu.version_r
 *(.gnu.version_r)

.rel.init
 *(.rel.init)

.rela.init
 *(.rela.init)

.rel.text
 *(.rel.text)
 *(.rel.text.*)
 *(.rel.gnu.linkonce.t*)

.rela.text
 *(.rela.text)
 *(.rela.text.*)
 *(.rela.gnu.linkonce.t*)

.rel.fini
 *(.rel.fini)

.rela.fini
 *(.rela.fini)

.rel.rodata
 *(.rel.rodata)
 *(.rel.rodata.*)
 *(.rel.gnu.linkonce.r*)

.rela.rodata
 *(.rela.rodata)
 *(.rela.rodata.*)
 *(.rela.gnu.linkonce.r*)

.rel.data
 *(.rel.data)
 *(.rel.data.*)
 *(.rel.gnu.linkonce.d*)

.rela.data
 *(.rela.data)
 *(.rela.data.*)
 *(.rela.gnu.linkonce.d*)

.rel.ctors
 *(.rel.ctors)

.rela.ctors
 *(.rela.ctors)

.rel.dtors
 *(.rel.dtors)

.rela.dtors
 *(.rela.dtors)

.rel.got
 *(.rel.got)

.rela.got
 *(.rela.got)

.rel.bss
 *(.rel.bss)

.rela.bss
 *(.rela.bss)

.rel.plt
 *(.rel.plt)

.rela.plt
 *(.rela.plt)

.text           0x00000000     0xaadc
 *(.vectors)
 .vectors       0x00000000      0x1e8 c:/program files (x86)/atmel/studio/7.0/toolchain/avr8/avr8-gnu-toolchain/bin/../lib/gcc/avr/5.4.0/../../../../avr/lib/avrxmega6/crtatxmega256a3.o
                0x00000000                __vector_default
                0x00000000                __vectors
 *(.vectors)
 *(.progmem.gcc*)
 .progmem.gcc_sw_table
                0x000001e8       0x94 ./rtb_eval_app.o
 .progmem.gcc_sw_table
                0x0000027c       0x5a ./tal.o
 .progmem.gcc_sw_table
                0x000002d6       0x2e ./rtb.o
 .progmem.gcc_sw_table
                0x00000304       0x18 ./rtb_pib.o
 .progmem.gcc_sw_table
                0x0000031c       0x10 ./rtb_tx.o
                0x0000032c                . = ALIGN (0x2)
                0x0000032c                __trampolines_start = .
 *(.trampolines)
 .trampolines   0x0000032c      0x174 linker stubs
 *(.trampolines*)
                0x000004a0                __trampolines_end = .
 *libprintf_flt.a:*(.progmem.data)
 .progmem.data  0x000004a0        0x8 c:/program files (x86)/atmel/studio/7.0/toolchain/avr8/avr8-gnu-toolchain/bin/../lib/gcc/avr/5.4.0/../../../../avr/lib/avrxmega6\libprintf_flt.a(vfprintf_flt.o)
 *libc.a:*(.progmem.data)
 .progmem.data  0x000004a8       0xfa c:/program files (x86)/atmel/studio/7.0/toolchain/avr8/avr8-gnu-toolchain/bin/../lib/gcc/avr/5.4.0/../../../../avr/lib/avrxmega6\libc.a(ftoa_engine.o)
 *(.progmem*)
 .progmem.data  0x000005a2       0x10 ./tal_pib.o
                0x000005a2                tx_pwr_table
 .progmem.data  0x000005b2       0x48 ./mac_dispatcher.o
 .progmem.data  0x000005fa       0x29 ./mac_pib.o
 .progmem.data  0x00000623       0x10 ./rtb_dispatcher.o
 .progmem.data  0x00000633        0xc ./rtb_pib.o
                0x00000640                . = ALIGN (0x2)
 *fill*         0x0000063f        0x1 
 *(.jumptables)
 *(.jumptables*)
 *(.lowtext)
 *(.lowtext*)
                0x00000640                __ctors_start = .
 *(.ctors)
                0x00000640                __ctors_end = .
                0x00000640                __dtors_start = .
 *(.dtors)
                0x00000640                __dtors_end = .
 SORT(*)(.ctors)
 SORT(*)(.dtors)
 *(.init0)
 .init0         0x00000640        0x0 c:/program files (x86)/atmel/studio/7.0/toolchain/avr8/avr8-gnu-toolchain/bin/../lib/gcc/avr/5.4.0/../../../../avr/lib/avrxmega6/crtatxmega256a3.o
                0x00000640                __init
 *(.init0)
 *(.init1)
 *(.init1)
 *(.init2)
 .init2         0x00000640       0x10 c:/program files (x86)/atmel/studio/7.0/toolchain/avr8/avr8-gnu-toolchain/bin/../lib/gcc/avr/5.4.0/../../../../avr/lib/avrxmega6/crtatxmega256a3.o
 *(.init2)
 *(.init3)
 *(.init3)
 *(.init4)
 .init4         0x00000650       0x1a c:/program files (x86)/atmel/studio/7.0/toolchain/avr8/avr8-gnu-toolchain/bin/../lib/gcc/avr/5.4.0/avrxmega6\libgcc.a(_copy_data.o)
                0x00000650                __do_copy_data
 .init4         0x0000066a       0x10 c:/program files (x86)/atmel/studio/7.0/toolchain/avr8/avr8-gnu-toolchain/bin/../lib/gcc/avr/5.4.0/avrxmega6\libgcc.a(_clear_bss.o)
                0x0000066a                __do_clear_bss
 *(.init4)
 *(.init5)
 *(.init5)
 *(.init6)
 *(.init6)
 *(.init7)
 *(.init7)
 *(.init8)
 *(.init8)
 *(.init9)
 .init9         0x0000067a        0x8 c:/program files (x86)/atmel/studio/7.0/toolchain/avr8/avr8-gnu-toolchain/bin/../lib/gcc/avr/5.4.0/../../../../avr/lib/avrxmega6/crtatxmega256a3.o
 *(.init9)
 *(.text)
 .text          0x00000682        0x4 c:/program files (x86)/atmel/studio/7.0/toolchain/avr8/avr8-gnu-toolchain/bin/../lib/gcc/avr/5.4.0/../../../../avr/lib/avrxmega6/crtatxmega256a3.o
                0x00000682                __vector_38
                0x00000682                __vector_104
                0x00000682                __vector_63
                0x00000682                __vector_28
                0x00000682                __vector_67
                0x00000682                __vector_1
                0x00000682                __vector_119
                0x00000682                __vector_32
                0x00000682                __vector_75
                0x00000682                __vector_71
                0x00000682                __vector_91
                0x00000682                __vector_62
                0x00000682                __vector_77
                0x00000682                __vector_102
                0x00000682                __vector_24
                0x00000682                __vector_12
                0x00000682                __vector_55
                0x00000682                __vector_69
                0x00000682                __vector_81
                0x00000682                __vector_46
                0x00000682                __bad_interrupt
                0x00000682                __vector_72
                0x00000682                __vector_114
                0x00000682                __vector_6
                0x00000682                __vector_110
                0x00000682                __vector_31
                0x00000682                __vector_92
                0x00000682                __vector_35
                0x00000682                __vector_78
                0x00000682                __vector_74
                0x00000682                __vector_117
                0x00000682                __vector_39
                0x00000682                __vector_107
                0x00000682                __vector_3
                0x00000682                __vector_105
                0x00000682                __vector_98
                0x00000682                __vector_23
                0x00000682                __vector_68
                0x00000682                __vector_30
                0x00000682                __vector_73
                0x00000682                __vector_45
                0x00000682                __vector_25
                0x00000682                __vector_93
                0x00000682                __vector_61
                0x00000682                __vector_11
                0x00000682                __vector_54
                0x00000682                __vector_99
                0x00000682                __vector_13
                0x00000682                __vector_17
                0x00000682                __vector_19
                0x00000682                __vector_56
                0x00000682                __vector_7
                0x00000682                __vector_49
                0x00000682                __vector_41
                0x00000682                __vector_86
                0x00000682                __vector_100
                0x00000682                __vector_101
                0x00000682                __vector_64
                0x00000682                __vector_109
                0x00000682                __vector_43
                0x00000682                __vector_27
                0x00000682                __vector_5
                0x00000682                __vector_113
                0x00000682                __vector_33
                0x00000682                __vector_76
                0x00000682                __vector_115
                0x00000682                __vector_47
                0x00000682                __vector_52
                0x00000682                __vector_37
                0x00000682                __vector_95
                0x00000682                __vector_103
                0x00000682                __vector_96
                0x00000682                __vector_89
                0x00000682                __vector_108
                0x00000682                __vector_4
                0x00000682                __vector_44
                0x00000682                __vector_82
                0x00000682                __vector_106
                0x00000682                __vector_118
                0x00000682                __vector_51
                0x00000682                __vector_9
                0x00000682                __vector_21
                0x00000682                __vector_15
                0x00000682                __vector_66
                0x00000682                __vector_36
                0x00000682                __vector_79
                0x00000682                __vector_58
                0x00000682                __vector_70
                0x00000682                __vector_83
                0x00000682                __vector_29
                0x00000682                __vector_60
                0x00000682                __vector_121
                0x00000682                __vector_40
                0x00000682                __vector_85
                0x00000682                __vector_94
                0x00000682                __vector_8
                0x00000682                __vector_26
                0x00000682                __vector_48
                0x00000682                __vector_116
                0x00000682                __vector_112
                0x00000682                __vector_111
                0x00000682                __vector_80
                0x00000682                __vector_84
                0x00000682                __vector_57
                0x00000682                __vector_53
                0x00000682                __vector_10
                0x00000682                __vector_50
                0x00000682                __vector_59
                0x00000682                __vector_18
                0x00000682                __vector_97
                0x00000682                __vector_20
                0x00000682                __vector_42
                0x00000682                __vector_87
                0x00000682                __vector_65
                0x00000682                __vector_120
 .text          0x00000686        0x0 c:/program files (x86)/atmel/studio/7.0/toolchain/avr8/avr8-gnu-toolchain/bin/../lib/gcc/avr/5.4.0/../../../../avr/lib/avrxmega6\libprintf_flt.a(vfprintf_flt.o)
 .text          0x00000686      0x5b0 ./rtb_eval_app.o
                0x000007fa                usr_rtb_range_conf
                0x000008d8                usr_mlme_reset_conf
                0x0000090c                usr_mlme_set_conf
                0x00000918                usr_rtb_reset_conf
                0x00000a52                usr_rtb_set_conf
                0x00000a54                usr_rtb_pmu_validity_ind
                0x00000bd8                timeout_remote_ranging_cb
 .text          0x00000c36      0xcfa ./rtb_eval_app_param.o
                0x00000c5a                fill_range_addresses
                0x00000dd8                get_int
                0x00000e58                print_range_addresses
                0x000010ca                range_load_param
                0x00001186                range_set_default_addr
                0x00001272                range_store_param
                0x0000131a                set_addr_scheme
                0x0000136c                set_antenna_diversity
                0x000013b2                set_application_min_threshold
                0x000013f8                set_channel
                0x00001440                set_default_antenna
                0x00001486                set_default_non_addr_param
                0x000014b0                set_freq_start
                0x000014ee                set_filtering_length_cont
                0x00001524                set_filtering_method_cont
                0x0000158c                set_freq_step
                0x000015d2                set_freq_stop
                0x00001610                set_coordinator_addr_mode
                0x00001656                set_init_long_addr
                0x0000168a                set_init_short_addr
                0x000016aa                set_pan_id
                0x000016e8                set_provisioning_of_results
                0x0000172e                set_provisioning_of_tx_power
                0x00001774                set_refl_long_addr
                0x000017a8                set_refl_short_addr
                0x000017c8                set_short_addr
                0x00001806                set_own_short_addr
                0x00001832                set_transmit_power
                0x00001888                set_verbose_level
                0x000018d0                write_pib
 .text          0x00001930      0xcd4 ./rtb_eval_app_ranging.o
                0x0000195a                continue_ranging_after_timeout_cb
                0x0000197a                continue_ranging
                0x00001a32                handle_range_conf_z
                0x00001a9a                handle_cont_ranging_res
                0x0000227c                handle_cont_range_conf
                0x000022b0                init_ranging
                0x00002358                go_ranging
                0x000023b6                print_status
                0x00002428                handle_range_conf
 .text          0x00002604       0xd8 ./sio_handler.o
                0x00002604                _sio_putchar
                0x0000264a                _sio_getchar
                0x0000267c                _sio_getchar_nowait
                0x000026aa                sio_binarywrite
 .text          0x000026dc      0x218 ./pal_uart.o
                0x000026dc                sio_uart_0_init
                0x00002746                sio_uart_0_tx
                0x000027cc                sio_uart_0_rx
                0x00002842                __vector_88
                0x0000289a                __vector_90
 .text          0x000028f4       0x3c ./pal_sio_hub.o
                0x000028f4                pal_sio_init
                0x0000290c                pal_sio_tx
                0x0000291e                pal_sio_rx
 .text          0x00002930       0x6e ./pal_irq.o
                0x00002930                pal_trx_irq_init
                0x00002948                __vector_2
 .text          0x0000299e      0x1ba ./pal.o
                0x000029ce                pal_init
                0x000029f8                pal_task
                0x000029fc                pal_ps_get
                0x00002a6e                pal_ps_set
                0x00002b3e                pal_alert
 .text          0x00002b58      0x6ac ./pal_timer.o
                0x00002c40                timer_init
                0x00002c78                pal_timer_source_select
                0x00002c8c                pal_get_current_time
                0x00002ca4                pal_timer_delay
                0x00002cf8                pal_is_timer_running
                0x00002d14                internal_timer_handler
                0x00002d8a                timer_service
                0x00002e00                pal_timer_start
                0x00003024                pal_timer_stop
                0x0000317c                __vector_14
                0x000031de                __vector_16
 .text          0x00003204      0x318 ./pal_board.o
                0x00003204                pal_trx_read_timestamp
                0x0000323e                pal_calibrate_rc_osc
                0x00003242                event_system_init
                0x00003256                interrupt_system_init
                0x00003262                clock_init
                0x00003290                gpio_init
                0x000032d4                timer_init_non_generic
                0x000032f8                extern_eeprom_get
                0x00003414                pal_led_init
                0x00003420                pal_led
                0x0000347c                pal_button_init
                0x00003492                pal_button_read
                0x0000349e                pal_configure_port_interrupt
                0x000034ca                __vector_34
                0x00003506                pal_sleep_mode
 .text          0x0000351c        0x0 ./pal_utils.o
 .text          0x0000351c      0x230 ./pal_trx_access.o
                0x0000351c                trx_interface_init
                0x00003532                pal_trx_reg_write
                0x0000356c                pal_trx_reg_read
                0x000035aa                pal_trx_frame_read
                0x00003606                pal_trx_frame_write
                0x0000363a                pal_trx_bit_read
                0x0000365a                pal_trx_bit_write
                0x0000368e                pal_trx_sram_write
                0x000036dc                pal_trx_sram_read
 .text          0x0000374c       0x5a ./bmm.o
                0x0000374c                bmm_buffer_init
                0x0000378a                bmm_buffer_alloc
                0x00003796                bmm_buffer_free
 .text          0x000037a6      0x160 ./qmm.o
                0x00003884                qmm_queue_init
                0x00003892                qmm_queue_append
                0x000038c8                qmm_queue_remove
                0x000038d2                qmm_queue_read
                0x000038dc                qmm_queue_flush
 .text          0x00003906      0x38a ./tal.o
                0x000039cc                set_trx_state
                0x00003c26                tal_task
 .text          0x00003c90      0x108 ./tal_rx.o
                0x00003c90                handle_received_frame_irq
                0x00003d2a                process_incoming_frame
 .text          0x00003d98      0x132 ./tal_tx.o
                0x00003d98                tx_done_handling
                0x00003dbc                send_frame
                0x00003e56                tal_tx_frame
                0x00003e8e                handle_tx_end_irq
 .text          0x00003eca        0x0 ./tal_ed.o
 .text          0x00003eca        0x0 ./tal_slotted_csma.o
 .text          0x00003eca      0x33e ./tal_pib.o
                0x00003efa                write_all_tal_pib_to_trx
                0x00003fa0                limit_tx_pwr
                0x00003fe2                init_tal_pib
                0x0000403e                tal_pib_set
 .text          0x00004208      0x38e ./tal_init.o
                0x0000428a                trx_config
                0x00004324                tal_generate_rand_seed
                0x000043f0                tal_reset
                0x0000445c                tal_init
 .text          0x00004596       0x3e ./tal_irq_handler.o
                0x00004596                trx_irq_handler_cb
                0x000045c2                trx_irq_awake_handler_cb
 .text          0x000045d4       0x5e ./tal_pwr_mgmt.o
                0x000045d4                tal_trx_sleep
                0x0000460e                tal_trx_wakeup
 .text          0x00004632       0x3a ./tal_rx_enable.o
                0x00004632                tal_rx_enable
 .text          0x0000466c      0x172 ./mac_api.o
                0x0000466c                wpan_init
                0x00004678                wpan_task
                0x000046a8                wpan_mcps_data_req
                0x0000475c                wpan_mlme_reset_req
                0x0000478a                wpan_mlme_set_req
 .text          0x000047de        0x0 ./mac_associate.o
 .text          0x000047de        0x0 ./mac_beacon.o
 .text          0x000047de       0xfa ./mac_callback_wrapper.o
                0x000047de                mcps_data_ind
                0x00004886                mcps_data_conf
                0x000048a2                mlme_reset_conf
                0x000048bc                mlme_set_conf
 .text          0x000048d8      0x162 ./mac_data_extract_mhr.o
                0x000048d8                mac_extract_mhr_addr_info
 .text          0x00004a3a      0x1fc ./mac_data_ind.o
                0x00004a3a                mac_process_tal_data_ind
                0x00004c1e                tal_rx_frame_cb
 .text          0x00004c36        0x0 ./mac_data_req.o
 .text          0x00004c36       0x2c ./mac_dispatcher.o
                0x00004c36                dispatch_event
 .text          0x00004c62       0x8e ./mac.o
                0x00004c62                mac_task
                0x00004cb2                mac_ready_to_sleep
 .text          0x00004cf0      0x45e ./mac_mcps_data.o
                0x00004cf0                mac_gen_mcps_data_conf
                0x00004d08                mcps_data_request
                0x00004f7e                mac_process_data_frame
 .text          0x0000514e      0x1ee ./mac_misc.o
                0x000051d2                mac_trx_init_sleep
                0x000051f8                mac_sleep_trans
                0x0000520e                mac_init
                0x00005256                mac_trx_wakeup
                0x00005272                mac_idle_trans
                0x000052c4                mlme_reset_request
 .text          0x0000533c        0x0 ./mac_orphan.o
 .text          0x0000533c      0x21a ./mac_pib.o
                0x0000533c                mlme_set
                0x000054b0                mlme_set_request
                0x000054ea                set_tal_pib_internal
                0x00005522                mac_get_pib_attribute_size
 .text          0x00005556        0x0 ./mac_poll.o
 .text          0x00005556        0x0 ./mac_process_beacon_frame.o
 .text          0x00005556       0x1c ./mac_process_tal_tx_frame_status.o
                0x00005556                tal_tx_frame_done_cb
 .text          0x00005572        0x0 ./mac_rx_enable.o
 .text          0x00005572        0x0 ./mac_scan.o
 .text          0x00005572        0x0 ./mac_start.o
 .text          0x00005572        0x0 ./mac_tx_coord_realignment_command.o
 .text          0x00005572      0x772 ./rtb.o
                0x00005606                range_gen_rtb_range_conf
                0x00005684                range_gen_rtb_remote_range_conf
                0x000057aa                configure_ranging
                0x000057ae                range_stop_await_timer
                0x000057b4                range_exit
                0x000057f4                range_result_presentation
                0x0000582e                handle_range_frame_error
                0x00005858                range_t_await_frame_cb
                0x000058b4                range_start_await_timer
                0x000058fe                reset_pmu_average_data
                0x00005914                rtb_init
                0x0000595a                rtb_reset_request
                0x0000598c                rtb_task
                0x00005a6c                rtb_range_request
 .text          0x00005ce4       0xb6 ./rtb_api.o
                0x00005ce4                wpan_rtb_reset_req
                0x00005d0a                wpan_rtb_set_req
                0x00005d5e                wpan_rtb_range_req
 .text          0x00005d9a       0x68 ./rtb_callback_wrapper.o
                0x00005d9a                rtb_range_conf
                0x00005db4                rtb_reset_conf
                0x00005dce                rtb_set_conf
                0x00005de8                rtb_pmu_validitiy_ind
 .text          0x00005e02       0x2e ./rtb_dispatcher.o
                0x00005e02                dispatch_rtb_event
 .text          0x00005e30      0x100 ./rtb_hw_233r_xmega.o
                0x00005e30                set_slp_trx_high
                0x00005e38                set_slp_trx_low
                0x00005e40                rtb_tstamp_irq_init
                0x00005ea8                rtb_tstamp_irq_exit
                0x00005eca                __vector_22
 .text          0x00005f30      0x158 ./rtb_pib.o
                0x00005f30                rtb_set
                0x0000603a                rtb_set_request
                0x00006074                rtb_get_pib_attribute_size
 .text          0x00006088      0x6dc ./rtb_rx.o
                0x00006088                rtb_rx_frame_cb
                0x000060a2                rtb_process_data_ind
 .text          0x00006764      0x8b6 ./rtb_tx.o
                0x00006764                range_process_tal_tx_status
                0x00006858                rtb_tx_frame_done_cb
                0x00006868                range_build_frame
                0x00006efc                range_assemble_and_tx_frame_csma
                0x00006fd6                range_tx_range_accept_frame
                0x00006fe2                range_tx_result_req_frame
                0x00006ff8                range_tx_result_conf_frame
                0x0000700e                range_tx_remote_range_conf_frame
 .text          0x0000701a        0x2 ./usr_mcps_data_conf.o
                0x0000701a                usr_mcps_data_conf
 .text          0x0000701c        0x2 ./usr_mcps_data_ind.o
                0x0000701c                usr_mcps_data_ind
 .text          0x0000701e        0x0 ./usr_mlme_associate_conf.o
 .text          0x0000701e        0x2 ./usr_mlme_associate_ind.o
                0x0000701e                usr_mlme_associate_ind
 .text          0x00007020        0x2 ./usr_mlme_comm_status_ind.o
                0x00007020                usr_mlme_comm_status_ind
 .text          0x00007022        0x0 ./usr_mlme_get_conf.o
 .text          0x00007022        0x2 ./usr_mlme_orphan_ind.o
                0x00007022                usr_mlme_orphan_ind
 .text          0x00007024        0x0 ./usr_mlme_poll_conf.o
 .text          0x00007024        0x0 ./usr_mlme_rx_enable_conf.o
 .text          0x00007024        0x0 ./usr_mlme_scan_conf.o
 .text          0x00007024        0x2 ./usr_mlme_start_conf.o
                0x00007024                usr_mlme_start_conf
 .text          0x00007026      0xe0e ../../../../../RTB/RTB_Lib/AT86RF233_ATXMEGA256A3_REB_8_1_CBB/GCC\lib_rtb_pmu_233r_remote.a(rtb_pmu_math.o)
                0x00007026                range_calc_aver_pmu4
                0x0000719e                pmu_math_pmu_2_dist
 .text          0x00007e34      0x2a4 ../../../../../RTB/RTB_Lib/AT86RF233_ATXMEGA256A3_REB_8_1_CBB/GCC\lib_rtb_pmu_233r_remote.a(rtb_pmu_result.o)
                0x00007e34                pmu_extract_no_of_req_result_values
                0x00007e3e                pmu_fill_initial_start_addr
                0x00007e4e                pmu_fill_result_data
                0x00007ea8                pmu_handle_received_pmu_values
                0x00007f0c                pmu_get_no_of_results_to_be_sent
                0x00007f24                pmu_more_results_to_be_expected
                0x00007f40                pmu_no_more_pmu_data_available
                0x00007f5c                pmu_set_pmu_result_idx_done
                0x00007f6a                pmu_reset_pmu_result_vars
                0x00007f7c                pmu_update_result_ptr
                0x00007fa0                pmu_prepare_result_exchange
                0x00008004                pmu_range_pmu_result_dump
                0x00008006                pmu_validity_indication
                0x000080b6                pmu_result_presentation
 .text          0x000080d8      0x984 ../../../../../RTB/RTB_Lib/AT86RF233_ATXMEGA256A3_REB_8_1_CBB/GCC\lib_rtb_pmu_233r_remote.a(rtb_pmu_233r.o)
                0x000080d8                pmu_configure_ranging
                0x00008128                pmu_configure_antenna
                0x000081b0                pmu_enable_fec_measurement
                0x000081d0                pmu_disable_fec_measurement
                0x000081e2                pmu_perform_pmu_measurement
                0x0000899c                pmu_tx_pmu_time_sync_frame
                0x000089c4                pmu_check_pmu_params
                0x00008a04                rtb_update_fec
                0x00008a52                pmu_reset_fec_vars
 .text          0x00008a5c        0x0 c:/program files (x86)/atmel/studio/7.0/toolchain/avr8/avr8-gnu-toolchain/bin/../lib/gcc/avr/5.4.0/../../../../avr/lib/avrxmega6\libm.a(addsf3.o)
 .text          0x00008a5c        0x0 c:/program files (x86)/atmel/studio/7.0/toolchain/avr8/avr8-gnu-toolchain/bin/../lib/gcc/avr/5.4.0/../../../../avr/lib/avrxmega6\libm.a(addsf3x.o)
 .text          0x00008a5c        0x0 c:/program files (x86)/atmel/studio/7.0/toolchain/avr8/avr8-gnu-toolchain/bin/../lib/gcc/avr/5.4.0/../../../../avr/lib/avrxmega6\libm.a(ceil.o)
 .text          0x00008a5c        0x0 c:/program files (x86)/atmel/studio/7.0/toolchain/avr8/avr8-gnu-toolchain/bin/../lib/gcc/avr/5.4.0/../../../../avr/lib/avrxmega6\libm.a(cmpsf2.o)
 .text          0x00008a5c        0x0 c:/program files (x86)/atmel/studio/7.0/toolchain/avr8/avr8-gnu-toolchain/bin/../lib/gcc/avr/5.4.0/../../../../avr/lib/avrxmega6\libm.a(divsf3.o)
 .text          0x00008a5c        0x0 c:/program files (x86)/atmel/studio/7.0/toolchain/avr8/avr8-gnu-toolchain/bin/../lib/gcc/avr/5.4.0/../../../../avr/lib/avrxmega6\libm.a(divsf3x.o)
 .text          0x00008a5c        0x0 c:/program files (x86)/atmel/studio/7.0/toolchain/avr8/avr8-gnu-toolchain/bin/../lib/gcc/avr/5.4.0/../../../../avr/lib/avrxmega6\libm.a(fixsfsi.o)
 .text          0x00008a5c        0x0 c:/program files (x86)/atmel/studio/7.0/toolchain/avr8/avr8-gnu-toolchain/bin/../lib/gcc/avr/5.4.0/../../../../avr/lib/avrxmega6\libm.a(fixunssfsi.o)
 .text          0x00008a5c        0x0 c:/program files (x86)/atmel/studio/7.0/toolchain/avr8/avr8-gnu-toolchain/bin/../lib/gcc/avr/5.4.0/../../../../avr/lib/avrxmega6\libm.a(floatsisf.o)
 .text          0x00008a5c        0x0 c:/program files (x86)/atmel/studio/7.0/toolchain/avr8/avr8-gnu-toolchain/bin/../lib/gcc/avr/5.4.0/../../../../avr/lib/avrxmega6\libm.a(fp_cmp.o)
 .text          0x00008a5c        0x0 c:/program files (x86)/atmel/studio/7.0/toolchain/avr8/avr8-gnu-toolchain/bin/../lib/gcc/avr/5.4.0/../../../../avr/lib/avrxmega6\libm.a(fp_inf.o)
 .text          0x00008a5c        0x0 c:/program files (x86)/atmel/studio/7.0/toolchain/avr8/avr8-gnu-toolchain/bin/../lib/gcc/avr/5.4.0/../../../../avr/lib/avrxmega6\libm.a(fp_mintl.o)
 .text          0x00008a5c        0x0 c:/program files (x86)/atmel/studio/7.0/toolchain/avr8/avr8-gnu-toolchain/bin/../lib/gcc/avr/5.4.0/../../../../avr/lib/avrxmega6\libm.a(fp_mpack.o)
 .text          0x00008a5c        0x0 c:/program files (x86)/atmel/studio/7.0/toolchain/avr8/avr8-gnu-toolchain/bin/../lib/gcc/avr/5.4.0/../../../../avr/lib/avrxmega6\libm.a(fp_nan.o)
 .text          0x00008a5c        0x0 c:/program files (x86)/atmel/studio/7.0/toolchain/avr8/avr8-gnu-toolchain/bin/../lib/gcc/avr/5.4.0/../../../../avr/lib/avrxmega6\libm.a(fp_pscA.o)
 .text          0x00008a5c        0x0 c:/program files (x86)/atmel/studio/7.0/toolchain/avr8/avr8-gnu-toolchain/bin/../lib/gcc/avr/5.4.0/../../../../avr/lib/avrxmega6\libm.a(fp_pscB.o)
 .text          0x00008a5c        0x0 c:/program files (x86)/atmel/studio/7.0/toolchain/avr8/avr8-gnu-toolchain/bin/../lib/gcc/avr/5.4.0/../../../../avr/lib/avrxmega6\libm.a(fp_round.o)
 .text          0x00008a5c        0x0 c:/program files (x86)/atmel/studio/7.0/toolchain/avr8/avr8-gnu-toolchain/bin/../lib/gcc/avr/5.4.0/../../../../avr/lib/avrxmega6\libm.a(fp_split3.o)
 .text          0x00008a5c        0x0 c:/program files (x86)/atmel/studio/7.0/toolchain/avr8/avr8-gnu-toolchain/bin/../lib/gcc/avr/5.4.0/../../../../avr/lib/avrxmega6\libm.a(fp_trunc.o)
 .text          0x00008a5c        0x0 c:/program files (x86)/atmel/studio/7.0/toolchain/avr8/avr8-gnu-toolchain/bin/../lib/gcc/avr/5.4.0/../../../../avr/lib/avrxmega6\libm.a(fp_zero.o)
 .text          0x00008a5c        0x0 c:/program files (x86)/atmel/studio/7.0/toolchain/avr8/avr8-gnu-toolchain/bin/../lib/gcc/avr/5.4.0/../../../../avr/lib/avrxmega6\libm.a(gesf2.o)
 .text          0x00008a5c        0x0 c:/program files (x86)/atmel/studio/7.0/toolchain/avr8/avr8-gnu-toolchain/bin/../lib/gcc/avr/5.4.0/../../../../avr/lib/avrxmega6\libm.a(mulsf3.o)
 .text          0x00008a5c        0x0 c:/program files (x86)/atmel/studio/7.0/toolchain/avr8/avr8-gnu-toolchain/bin/../lib/gcc/avr/5.4.0/../../../../avr/lib/avrxmega6\libm.a(mulsf3x.o)
 .text          0x00008a5c        0x0 c:/program files (x86)/atmel/studio/7.0/toolchain/avr8/avr8-gnu-toolchain/bin/../lib/gcc/avr/5.4.0/../../../../avr/lib/avrxmega6\libm.a(round.o)
 .text          0x00008a5c        0x0 c:/program files (x86)/atmel/studio/7.0/toolchain/avr8/avr8-gnu-toolchain/bin/../lib/gcc/avr/5.4.0/avrxmega6\libgcc.a(_mulsi3.o)
 .text          0x00008a5c        0x0 c:/program files (x86)/atmel/studio/7.0/toolchain/avr8/avr8-gnu-toolchain/bin/../lib/gcc/avr/5.4.0/avrxmega6\libgcc.a(_udivmodhi4.o)
 .text          0x00008a5c        0x0 c:/program files (x86)/atmel/studio/7.0/toolchain/avr8/avr8-gnu-toolchain/bin/../lib/gcc/avr/5.4.0/avrxmega6\libgcc.a(_divmodhi4.o)
 .text          0x00008a5c        0x0 c:/program files (x86)/atmel/studio/7.0/toolchain/avr8/avr8-gnu-toolchain/bin/../lib/gcc/avr/5.4.0/avrxmega6\libgcc.a(_udivmodsi4.o)
 .text          0x00008a5c        0x0 c:/program files (x86)/atmel/studio/7.0/toolchain/avr8/avr8-gnu-toolchain/bin/../lib/gcc/avr/5.4.0/avrxmega6\libgcc.a(_exit.o)
 .text          0x00008a5c        0x0 c:/program files (x86)/atmel/studio/7.0/toolchain/avr8/avr8-gnu-toolchain/bin/../lib/gcc/avr/5.4.0/avrxmega6\libgcc.a(_tablejump2.o)
 .text          0x00008a5c        0x0 c:/program files (x86)/atmel/studio/7.0/toolchain/avr8/avr8-gnu-toolchain/bin/../lib/gcc/avr/5.4.0/avrxmega6\libgcc.a(_copy_data.o)
 .text          0x00008a5c        0x0 c:/program files (x86)/atmel/studio/7.0/toolchain/avr8/avr8-gnu-toolchain/bin/../lib/gcc/avr/5.4.0/avrxmega6\libgcc.a(_clear_bss.o)
 .text          0x00008a5c        0x0 c:/program files (x86)/atmel/studio/7.0/toolchain/avr8/avr8-gnu-toolchain/bin/../lib/gcc/avr/5.4.0/avrxmega6\libgcc.a(_muluhisi3.o)
 .text          0x00008a5c        0x0 c:/program files (x86)/atmel/studio/7.0/toolchain/avr8/avr8-gnu-toolchain/bin/../lib/gcc/avr/5.4.0/avrxmega6\libgcc.a(_ashrdi3.o)
 .text          0x00008a5c        0x0 c:/program files (x86)/atmel/studio/7.0/toolchain/avr8/avr8-gnu-toolchain/bin/../lib/gcc/avr/5.4.0/avrxmega6\libgcc.a(_adddi3_s8.o)
 .text          0x00008a5c        0x0 c:/program files (x86)/atmel/studio/7.0/toolchain/avr8/avr8-gnu-toolchain/bin/../lib/gcc/avr/5.4.0/avrxmega6\libgcc.a(_cmpdi2.o)
 .text          0x00008a5c        0x0 c:/program files (x86)/atmel/studio/7.0/toolchain/avr8/avr8-gnu-toolchain/bin/../lib/gcc/avr/5.4.0/avrxmega6\libgcc.a(_cmpdi2_s8.o)
 .text          0x00008a5c        0x0 c:/program files (x86)/atmel/studio/7.0/toolchain/avr8/avr8-gnu-toolchain/bin/../lib/gcc/avr/5.4.0/avrxmega6\libgcc.a(_umulhisi3.o)
 .text          0x00008a5c        0x0 c:/program files (x86)/atmel/studio/7.0/toolchain/avr8/avr8-gnu-toolchain/bin/../lib/gcc/avr/5.4.0/../../../../avr/lib/avrxmega6\libc.a(qsort.o)
 .text          0x00008a5c        0x0 c:/program files (x86)/atmel/studio/7.0/toolchain/avr8/avr8-gnu-toolchain/bin/../lib/gcc/avr/5.4.0/../../../../avr/lib/avrxmega6\libc.a(rand.o)
 .text          0x00008a5c        0x0 c:/program files (x86)/atmel/studio/7.0/toolchain/avr8/avr8-gnu-toolchain/bin/../lib/gcc/avr/5.4.0/../../../../avr/lib/avrxmega6\libc.a(atoi.o)
 .text          0x00008a5c        0x0 c:/program files (x86)/atmel/studio/7.0/toolchain/avr8/avr8-gnu-toolchain/bin/../lib/gcc/avr/5.4.0/../../../../avr/lib/avrxmega6\libc.a(ftoa_engine.o)
 .text          0x00008a5c        0x0 c:/program files (x86)/atmel/studio/7.0/toolchain/avr8/avr8-gnu-toolchain/bin/../lib/gcc/avr/5.4.0/../../../../avr/lib/avrxmega6\libc.a(strnlen_P.o)
 .text          0x00008a5c        0x0 c:/program files (x86)/atmel/studio/7.0/toolchain/avr8/avr8-gnu-toolchain/bin/../lib/gcc/avr/5.4.0/../../../../avr/lib/avrxmega6\libc.a(memcpy.o)
 .text          0x00008a5c        0x0 c:/program files (x86)/atmel/studio/7.0/toolchain/avr8/avr8-gnu-toolchain/bin/../lib/gcc/avr/5.4.0/../../../../avr/lib/avrxmega6\libc.a(strnlen.o)
 .text          0x00008a5c        0x0 c:/program files (x86)/atmel/studio/7.0/toolchain/avr8/avr8-gnu-toolchain/bin/../lib/gcc/avr/5.4.0/../../../../avr/lib/avrxmega6\libc.a(mul10.o)
 .text          0x00008a5c        0x0 c:/program files (x86)/atmel/studio/7.0/toolchain/avr8/avr8-gnu-toolchain/bin/../lib/gcc/avr/5.4.0/../../../../avr/lib/avrxmega6\libc.a(fdevopen.o)
 .text          0x00008a5c        0x0 c:/program files (x86)/atmel/studio/7.0/toolchain/avr8/avr8-gnu-toolchain/bin/../lib/gcc/avr/5.4.0/../../../../avr/lib/avrxmega6\libc.a(fputc.o)
 .text          0x00008a5c        0x0 c:/program files (x86)/atmel/studio/7.0/toolchain/avr8/avr8-gnu-toolchain/bin/../lib/gcc/avr/5.4.0/../../../../avr/lib/avrxmega6\libc.a(iob.o)
 .text          0x00008a5c        0x0 c:/program files (x86)/atmel/studio/7.0/toolchain/avr8/avr8-gnu-toolchain/bin/../lib/gcc/avr/5.4.0/../../../../avr/lib/avrxmega6\libc.a(printf.o)
 .text          0x00008a5c        0x0 c:/program files (x86)/atmel/studio/7.0/toolchain/avr8/avr8-gnu-toolchain/bin/../lib/gcc/avr/5.4.0/../../../../avr/lib/avrxmega6\libc.a(putchar.o)
 .text          0x00008a5c        0x0 c:/program files (x86)/atmel/studio/7.0/toolchain/avr8/avr8-gnu-toolchain/bin/../lib/gcc/avr/5.4.0/../../../../avr/lib/avrxmega6\libc.a(puts.o)
 .text          0x00008a5c        0x0 c:/program files (x86)/atmel/studio/7.0/toolchain/avr8/avr8-gnu-toolchain/bin/../lib/gcc/avr/5.4.0/../../../../avr/lib/avrxmega6\libc.a(ultoa_invert.o)
 .text          0x00008a5c        0x0 c:/program files (x86)/atmel/studio/7.0/toolchain/avr8/avr8-gnu-toolchain/bin/../lib/gcc/avr/5.4.0/../../../../avr/lib/avrxmega6\libc.a(calloc.o)
 .text          0x00008a5c        0x0 c:/program files (x86)/atmel/studio/7.0/toolchain/avr8/avr8-gnu-toolchain/bin/../lib/gcc/avr/5.4.0/../../../../avr/lib/avrxmega6\libc.a(malloc.o)
 .text          0x00008a5c        0x0 c:/program files (x86)/atmel/studio/7.0/toolchain/avr8/avr8-gnu-toolchain/bin/../lib/gcc/avr/5.4.0/../../../../avr/lib/avrxmega6\libc.a(memset.o)
 .text          0x00008a5c        0x0 c:/program files (x86)/atmel/studio/7.0/toolchain/avr8/avr8-gnu-toolchain/bin/../lib/gcc/avr/5.4.0/avrxmega6\libgcc.a(_divmodsi4.o)
 .text          0x00008a5c        0x0 c:/program files (x86)/atmel/studio/7.0/toolchain/avr8/avr8-gnu-toolchain/bin/../lib/gcc/avr/5.4.0/avrxmega6\libgcc.a(_negsi2.o)
 .text          0x00008a5c        0x0 c:/program files (x86)/atmel/studio/7.0/toolchain/avr8/avr8-gnu-toolchain/bin/../lib/gcc/avr/5.4.0/avrxmega6\libgcc.a(_mulshisi3.o)
                0x00008a5c                . = ALIGN (0x2)
 *(.text.*)
 .text.avr-libc
                0x00008a5c      0x740 c:/program files (x86)/atmel/studio/7.0/toolchain/avr8/avr8-gnu-toolchain/bin/../lib/gcc/avr/5.4.0/../../../../avr/lib/avrxmega6\libprintf_flt.a(vfprintf_flt.o)
                0x00008a5c                vfprintf
 .text.startup  0x0000919c      0x614 ./rtb_eval_app.o
                0x0000919c                main
 .text.avr-libc.fplib
                0x000097b0        0xe c:/program files (x86)/atmel/studio/7.0/toolchain/avr8/avr8-gnu-toolchain/bin/../lib/gcc/avr/5.4.0/../../../../avr/lib/avrxmega6\libm.a(addsf3.o)
                0x000097b0                __subsf3
                0x000097b2                __addsf3
 .text.avr-libc.fplib
                0x000097be       0xcc c:/program files (x86)/atmel/studio/7.0/toolchain/avr8/avr8-gnu-toolchain/bin/../lib/gcc/avr/5.4.0/../../../../avr/lib/avrxmega6\libm.a(addsf3x.o)
                0x000097e0                __addsf3x
 .text.avr-libc.fplib
                0x0000988a       0x2e c:/program files (x86)/atmel/studio/7.0/toolchain/avr8/avr8-gnu-toolchain/bin/../lib/gcc/avr/5.4.0/../../../../avr/lib/avrxmega6\libm.a(ceil.o)
                0x0000988a                ceil
 .text.avr-libc.fplib
                0x000098b8        0xa c:/program files (x86)/atmel/studio/7.0/toolchain/avr8/avr8-gnu-toolchain/bin/../lib/gcc/avr/5.4.0/../../../../avr/lib/avrxmega6\libm.a(cmpsf2.o)
                0x000098b8                __nesf2
                0x000098b8                __eqsf2
                0x000098b8                __cmpsf2
                0x000098b8                __ltsf2
                0x000098b8                __lesf2
 .text.avr-libc.fplib
                0x000098c2        0x8 c:/program files (x86)/atmel/studio/7.0/toolchain/avr8/avr8-gnu-toolchain/bin/../lib/gcc/avr/5.4.0/../../../../avr/lib/avrxmega6\libm.a(divsf3.o)
                0x000098c2                __divsf3
 .text.avr-libc.fplib
                0x000098ca       0xdc c:/program files (x86)/atmel/studio/7.0/toolchain/avr8/avr8-gnu-toolchain/bin/../lib/gcc/avr/5.4.0/../../../../avr/lib/avrxmega6\libm.a(divsf3x.o)
                0x000098ea                __divsf3x
                0x000098f0                __divsf3_pse
 .text.avr-libc.fplib
                0x000099a6        0xe c:/program files (x86)/atmel/studio/7.0/toolchain/avr8/avr8-gnu-toolchain/bin/../lib/gcc/avr/5.4.0/../../../../avr/lib/avrxmega6\libm.a(fixsfsi.o)
                0x000099a6                __fixsfsi
 .text.avr-libc.fplib
                0x000099b4       0x5e c:/program files (x86)/atmel/studio/7.0/toolchain/avr8/avr8-gnu-toolchain/bin/../lib/gcc/avr/5.4.0/../../../../avr/lib/avrxmega6\libm.a(fixunssfsi.o)
                0x000099b4                __fixunssfsi
 .text.avr-libc.fplib
                0x00009a12       0x7a c:/program files (x86)/atmel/studio/7.0/toolchain/avr8/avr8-gnu-toolchain/bin/../lib/gcc/avr/5.4.0/../../../../avr/lib/avrxmega6\libm.a(floatsisf.o)
                0x00009a12                __floatunsisf
                0x00009a16                __floatsisf
 .text.avr-libc.fplib
                0x00009a8c       0x48 c:/program files (x86)/atmel/studio/7.0/toolchain/avr8/avr8-gnu-toolchain/bin/../lib/gcc/avr/5.4.0/../../../../avr/lib/avrxmega6\libm.a(fp_cmp.o)
                0x00009a8c                __fp_cmp
 .text.avr-libc.fplib
                0x00009ad4        0xc c:/program files (x86)/atmel/studio/7.0/toolchain/avr8/avr8-gnu-toolchain/bin/../lib/gcc/avr/5.4.0/../../../../avr/lib/avrxmega6\libm.a(fp_inf.o)
                0x00009ad4                __fp_inf
 .text.avr-libc.fplib
                0x00009ae0       0x36 c:/program files (x86)/atmel/studio/7.0/toolchain/avr8/avr8-gnu-toolchain/bin/../lib/gcc/avr/5.4.0/../../../../avr/lib/avrxmega6\libm.a(fp_mintl.o)
                0x00009ae0                __fp_mintl
 .text.avr-libc.fplib
                0x00009b16       0x1c c:/program files (x86)/atmel/studio/7.0/toolchain/avr8/avr8-gnu-toolchain/bin/../lib/gcc/avr/5.4.0/../../../../avr/lib/avrxmega6\libm.a(fp_mpack.o)
                0x00009b16                __fp_mpack
                0x00009b1a                __fp_mpack_finite
 .text.avr-libc.fplib
                0x00009b32        0x6 c:/program files (x86)/atmel/studio/7.0/toolchain/avr8/avr8-gnu-toolchain/bin/../lib/gcc/avr/5.4.0/../../../../avr/lib/avrxmega6\libm.a(fp_nan.o)
                0x00009b32                __fp_nan
 .text.avr-libc.fplib
                0x00009b38        0xe c:/program files (x86)/atmel/studio/7.0/toolchain/avr8/avr8-gnu-toolchain/bin/../lib/gcc/avr/5.4.0/../../../../avr/lib/avrxmega6\libm.a(fp_pscA.o)
                0x00009b38                __fp_pscA
 .text.avr-libc.fplib
                0x00009b46        0xe c:/program files (x86)/atmel/studio/7.0/toolchain/avr8/avr8-gnu-toolchain/bin/../lib/gcc/avr/5.4.0/../../../../avr/lib/avrxmega6\libm.a(fp_pscB.o)
                0x00009b46                __fp_pscB
 .text.avr-libc.fplib
                0x00009b54       0x22 c:/program files (x86)/atmel/studio/7.0/toolchain/avr8/avr8-gnu-toolchain/bin/../lib/gcc/avr/5.4.0/../../../../avr/lib/avrxmega6\libm.a(fp_round.o)
                0x00009b54                __fp_round
 .text.avr-libc.fplib
                0x00009b76       0x44 c:/program files (x86)/atmel/studio/7.0/toolchain/avr8/avr8-gnu-toolchain/bin/../lib/gcc/avr/5.4.0/../../../../avr/lib/avrxmega6\libm.a(fp_split3.o)
                0x00009b76                __fp_split3
                0x00009b86                __fp_splitA
 .text.avr-libc.fplib
                0x00009bba       0x30 c:/program files (x86)/atmel/studio/7.0/toolchain/avr8/avr8-gnu-toolchain/bin/../lib/gcc/avr/5.4.0/../../../../avr/lib/avrxmega6\libm.a(fp_trunc.o)
                0x00009bba                __fp_trunc
 .text.avr-libc.fplib
                0x00009bea        0xe c:/program files (x86)/atmel/studio/7.0/toolchain/avr8/avr8-gnu-toolchain/bin/../lib/gcc/avr/5.4.0/../../../../avr/lib/avrxmega6\libm.a(fp_zero.o)
                0x00009bea                __fp_zero
                0x00009bec                __fp_szero
 .text.avr-libc.fplib
                0x00009bf8        0xa c:/program files (x86)/atmel/studio/7.0/toolchain/avr8/avr8-gnu-toolchain/bin/../lib/gcc/avr/5.4.0/../../../../avr/lib/avrxmega6\libm.a(gesf2.o)
                0x00009bf8                __gesf2
                0x00009bf8                __gtsf2
 .text.avr-libc.fplib
                0x00009c02        0x8 c:/program files (x86)/atmel/studio/7.0/toolchain/avr8/avr8-gnu-toolchain/bin/../lib/gcc/avr/5.4.0/../../../../avr/lib/avrxmega6\libm.a(mulsf3.o)
                0x00009c02                __mulsf3
 .text.avr-libc.fplib
                0x00009c0a       0xd2 c:/program files (x86)/atmel/studio/7.0/toolchain/avr8/avr8-gnu-toolchain/bin/../lib/gcc/avr/5.4.0/../../../../avr/lib/avrxmega6\libm.a(mulsf3x.o)
                0x00009c28                __mulsf3x
                0x00009c2e                __mulsf3_pse
 .text.avr-libc.fplib
                0x00009cdc       0x48 c:/program files (x86)/atmel/studio/7.0/toolchain/avr8/avr8-gnu-toolchain/bin/../lib/gcc/avr/5.4.0/../../../../avr/lib/avrxmega6\libm.a(round.o)
                0x00009cdc                round
 .text.libgcc.mul
                0x00009d24       0x20 c:/program files (x86)/atmel/studio/7.0/toolchain/avr8/avr8-gnu-toolchain/bin/../lib/gcc/avr/5.4.0/avrxmega6\libgcc.a(_mulsi3.o)
                0x00009d24                __mulsi3
 .text.libgcc.div
                0x00009d44        0x0 c:/program files (x86)/atmel/studio/7.0/toolchain/avr8/avr8-gnu-toolchain/bin/../lib/gcc/avr/5.4.0/avrxmega6\libgcc.a(_mulsi3.o)
 .text.libgcc   0x00009d44        0x0 c:/program files (x86)/atmel/studio/7.0/toolchain/avr8/avr8-gnu-toolchain/bin/../lib/gcc/avr/5.4.0/avrxmega6\libgcc.a(_mulsi3.o)
 .text.libgcc.prologue
                0x00009d44        0x0 c:/program files (x86)/atmel/studio/7.0/toolchain/avr8/avr8-gnu-toolchain/bin/../lib/gcc/avr/5.4.0/avrxmega6\libgcc.a(_mulsi3.o)
 .text.libgcc.builtins
                0x00009d44        0x0 c:/program files (x86)/atmel/studio/7.0/toolchain/avr8/avr8-gnu-toolchain/bin/../lib/gcc/avr/5.4.0/avrxmega6\libgcc.a(_mulsi3.o)
 .text.libgcc.fmul
                0x00009d44        0x0 c:/program files (x86)/atmel/studio/7.0/toolchain/avr8/avr8-gnu-toolchain/bin/../lib/gcc/avr/5.4.0/avrxmega6\libgcc.a(_mulsi3.o)
 .text.libgcc.fixed
                0x00009d44        0x0 c:/program files (x86)/atmel/studio/7.0/toolchain/avr8/avr8-gnu-toolchain/bin/../lib/gcc/avr/5.4.0/avrxmega6\libgcc.a(_mulsi3.o)
 .text.libgcc.mul
                0x00009d44        0x0 c:/program files (x86)/atmel/studio/7.0/toolchain/avr8/avr8-gnu-toolchain/bin/../lib/gcc/avr/5.4.0/avrxmega6\libgcc.a(_udivmodhi4.o)
 .text.libgcc.div
                0x00009d44       0x28 c:/program files (x86)/atmel/studio/7.0/toolchain/avr8/avr8-gnu-toolchain/bin/../lib/gcc/avr/5.4.0/avrxmega6\libgcc.a(_udivmodhi4.o)
                0x00009d44                __udivmodhi4
 .text.libgcc   0x00009d6c        0x0 c:/program files (x86)/atmel/studio/7.0/toolchain/avr8/avr8-gnu-toolchain/bin/../lib/gcc/avr/5.4.0/avrxmega6\libgcc.a(_udivmodhi4.o)
 .text.libgcc.prologue
                0x00009d6c        0x0 c:/program files (x86)/atmel/studio/7.0/toolchain/avr8/avr8-gnu-toolchain/bin/../lib/gcc/avr/5.4.0/avrxmega6\libgcc.a(_udivmodhi4.o)
 .text.libgcc.builtins
                0x00009d6c        0x0 c:/program files (x86)/atmel/studio/7.0/toolchain/avr8/avr8-gnu-toolchain/bin/../lib/gcc/avr/5.4.0/avrxmega6\libgcc.a(_udivmodhi4.o)
 .text.libgcc.fmul
                0x00009d6c        0x0 c:/program files (x86)/atmel/studio/7.0/toolchain/avr8/avr8-gnu-toolchain/bin/../lib/gcc/avr/5.4.0/avrxmega6\libgcc.a(_udivmodhi4.o)
 .text.libgcc.fixed
                0x00009d6c        0x0 c:/program files (x86)/atmel/studio/7.0/toolchain/avr8/avr8-gnu-toolchain/bin/../lib/gcc/avr/5.4.0/avrxmega6\libgcc.a(_udivmodhi4.o)
 .text.libgcc.mul
                0x00009d6c        0x0 c:/program files (x86)/atmel/studio/7.0/toolchain/avr8/avr8-gnu-toolchain/bin/../lib/gcc/avr/5.4.0/avrxmega6\libgcc.a(_divmodhi4.o)
 .text.libgcc.div
                0x00009d6c       0x28 c:/program files (x86)/atmel/studio/7.0/toolchain/avr8/avr8-gnu-toolchain/bin/../lib/gcc/avr/5.4.0/avrxmega6\libgcc.a(_divmodhi4.o)
                0x00009d6c                _div
                0x00009d6c                __divmodhi4
 .text.libgcc   0x00009d94        0x0 c:/program files (x86)/atmel/studio/7.0/toolchain/avr8/avr8-gnu-toolchain/bin/../lib/gcc/avr/5.4.0/avrxmega6\libgcc.a(_divmodhi4.o)
 .text.libgcc.prologue
                0x00009d94        0x0 c:/program files (x86)/atmel/studio/7.0/toolchain/avr8/avr8-gnu-toolchain/bin/../lib/gcc/avr/5.4.0/avrxmega6\libgcc.a(_divmodhi4.o)
 .text.libgcc.builtins
                0x00009d94        0x0 c:/program files (x86)/atmel/studio/7.0/toolchain/avr8/avr8-gnu-toolchain/bin/../lib/gcc/avr/5.4.0/avrxmega6\libgcc.a(_divmodhi4.o)
 .text.libgcc.fmul
                0x00009d94        0x0 c:/program files (x86)/atmel/studio/7.0/toolchain/avr8/avr8-gnu-toolchain/bin/../lib/gcc/avr/5.4.0/avrxmega6\libgcc.a(_divmodhi4.o)
 .text.libgcc.fixed
                0x00009d94        0x0 c:/program files (x86)/atmel/studio/7.0/toolchain/avr8/avr8-gnu-toolchain/bin/../lib/gcc/avr/5.4.0/avrxmega6\libgcc.a(_divmodhi4.o)
 .text.libgcc.mul
                0x00009d94        0x0 c:/program files (x86)/atmel/studio/7.0/toolchain/avr8/avr8-gnu-toolchain/bin/../lib/gcc/avr/5.4.0/avrxmega6\libgcc.a(_udivmodsi4.o)
 .text.libgcc.div
                0x00009d94       0x44 c:/program files (x86)/atmel/studio/7.0/toolchain/avr8/avr8-gnu-toolchain/bin/../lib/gcc/avr/5.4.0/avrxmega6\libgcc.a(_udivmodsi4.o)
                0x00009d94                __udivmodsi4
 .text.libgcc   0x00009dd8        0x0 c:/program files (x86)/atmel/studio/7.0/toolchain/avr8/avr8-gnu-toolchain/bin/../lib/gcc/avr/5.4.0/avrxmega6\libgcc.a(_udivmodsi4.o)
 .text.libgcc.prologue
                0x00009dd8        0x0 c:/program files (x86)/atmel/studio/7.0/toolchain/avr8/avr8-gnu-toolchain/bin/../lib/gcc/avr/5.4.0/avrxmega6\libgcc.a(_udivmodsi4.o)
 .text.libgcc.builtins
                0x00009dd8        0x0 c:/program files (x86)/atmel/studio/7.0/toolchain/avr8/avr8-gnu-toolchain/bin/../lib/gcc/avr/5.4.0/avrxmega6\libgcc.a(_udivmodsi4.o)
 .text.libgcc.fmul
                0x00009dd8        0x0 c:/program files (x86)/atmel/studio/7.0/toolchain/avr8/avr8-gnu-toolchain/bin/../lib/gcc/avr/5.4.0/avrxmega6\libgcc.a(_udivmodsi4.o)
 .text.libgcc.fixed
                0x00009dd8        0x0 c:/program files (x86)/atmel/studio/7.0/toolchain/avr8/avr8-gnu-toolchain/bin/../lib/gcc/avr/5.4.0/avrxmega6\libgcc.a(_udivmodsi4.o)
 .text.libgcc.mul
                0x00009dd8        0x0 c:/program files (x86)/atmel/studio/7.0/toolchain/avr8/avr8-gnu-toolchain/bin/../lib/gcc/avr/5.4.0/avrxmega6\libgcc.a(_exit.o)
 .text.libgcc.div
                0x00009dd8        0x0 c:/program files (x86)/atmel/studio/7.0/toolchain/avr8/avr8-gnu-toolchain/bin/../lib/gcc/avr/5.4.0/avrxmega6\libgcc.a(_exit.o)
 .text.libgcc   0x00009dd8        0x0 c:/program files (x86)/atmel/studio/7.0/toolchain/avr8/avr8-gnu-toolchain/bin/../lib/gcc/avr/5.4.0/avrxmega6\libgcc.a(_exit.o)
 .text.libgcc.prologue
                0x00009dd8        0x0 c:/program files (x86)/atmel/studio/7.0/toolchain/avr8/avr8-gnu-toolchain/bin/../lib/gcc/avr/5.4.0/avrxmega6\libgcc.a(_exit.o)
 .text.libgcc.builtins
                0x00009dd8        0x0 c:/program files (x86)/atmel/studio/7.0/toolchain/avr8/avr8-gnu-toolchain/bin/../lib/gcc/avr/5.4.0/avrxmega6\libgcc.a(_exit.o)
 .text.libgcc.fmul
                0x00009dd8        0x0 c:/program files (x86)/atmel/studio/7.0/toolchain/avr8/avr8-gnu-toolchain/bin/../lib/gcc/avr/5.4.0/avrxmega6\libgcc.a(_exit.o)
 .text.libgcc.fixed
                0x00009dd8        0x0 c:/program files (x86)/atmel/studio/7.0/toolchain/avr8/avr8-gnu-toolchain/bin/../lib/gcc/avr/5.4.0/avrxmega6\libgcc.a(_exit.o)
 .text.libgcc.mul
                0x00009dd8        0x0 c:/program files (x86)/atmel/studio/7.0/toolchain/avr8/avr8-gnu-toolchain/bin/../lib/gcc/avr/5.4.0/avrxmega6\libgcc.a(_tablejump2.o)
 .text.libgcc.div
                0x00009dd8        0x0 c:/program files (x86)/atmel/studio/7.0/toolchain/avr8/avr8-gnu-toolchain/bin/../lib/gcc/avr/5.4.0/avrxmega6\libgcc.a(_tablejump2.o)
 .text.libgcc   0x00009dd8       0x10 c:/program files (x86)/atmel/studio/7.0/toolchain/avr8/avr8-gnu-toolchain/bin/../lib/gcc/avr/5.4.0/avrxmega6\libgcc.a(_tablejump2.o)
                0x00009dd8                __tablejump2__
 .text.libgcc.prologue
                0x00009de8        0x0 c:/program files (x86)/atmel/studio/7.0/toolchain/avr8/avr8-gnu-toolchain/bin/../lib/gcc/avr/5.4.0/avrxmega6\libgcc.a(_tablejump2.o)
 .text.libgcc.builtins
                0x00009de8        0x0 c:/program files (x86)/atmel/studio/7.0/toolchain/avr8/avr8-gnu-toolchain/bin/../lib/gcc/avr/5.4.0/avrxmega6\libgcc.a(_tablejump2.o)
 .text.libgcc.fmul
                0x00009de8        0x0 c:/program files (x86)/atmel/studio/7.0/toolchain/avr8/avr8-gnu-toolchain/bin/../lib/gcc/avr/5.4.0/avrxmega6\libgcc.a(_tablejump2.o)
 .text.libgcc.fixed
                0x00009de8        0x0 c:/program files (x86)/atmel/studio/7.0/toolchain/avr8/avr8-gnu-toolchain/bin/../lib/gcc/avr/5.4.0/avrxmega6\libgcc.a(_tablejump2.o)
 .text.libgcc.mul
                0x00009de8        0x0 c:/program files (x86)/atmel/studio/7.0/toolchain/avr8/avr8-gnu-toolchain/bin/../lib/gcc/avr/5.4.0/avrxmega6\libgcc.a(_copy_data.o)
 .text.libgcc.div
                0x00009de8        0x0 c:/program files (x86)/atmel/studio/7.0/toolchain/avr8/avr8-gnu-toolchain/bin/../lib/gcc/avr/5.4.0/avrxmega6\libgcc.a(_copy_data.o)
 .text.libgcc   0x00009de8        0x0 c:/program files (x86)/atmel/studio/7.0/toolchain/avr8/avr8-gnu-toolchain/bin/../lib/gcc/avr/5.4.0/avrxmega6\libgcc.a(_copy_data.o)
 .text.libgcc.prologue
                0x00009de8        0x0 c:/program files (x86)/atmel/studio/7.0/toolchain/avr8/avr8-gnu-toolchain/bin/../lib/gcc/avr/5.4.0/avrxmega6\libgcc.a(_copy_data.o)
 .text.libgcc.builtins
                0x00009de8        0x0 c:/program files (x86)/atmel/studio/7.0/toolchain/avr8/avr8-gnu-toolchain/bin/../lib/gcc/avr/5.4.0/avrxmega6\libgcc.a(_copy_data.o)
 .text.libgcc.fmul
                0x00009de8        0x0 c:/program files (x86)/atmel/studio/7.0/toolchain/avr8/avr8-gnu-toolchain/bin/../lib/gcc/avr/5.4.0/avrxmega6\libgcc.a(_copy_data.o)
 .text.libgcc.fixed
                0x00009de8        0x0 c:/program files (x86)/atmel/studio/7.0/toolchain/avr8/avr8-gnu-toolchain/bin/../lib/gcc/avr/5.4.0/avrxmega6\libgcc.a(_copy_data.o)
 .text.libgcc.mul
                0x00009de8        0x0 c:/program files (x86)/atmel/studio/7.0/toolchain/avr8/avr8-gnu-toolchain/bin/../lib/gcc/avr/5.4.0/avrxmega6\libgcc.a(_clear_bss.o)
 .text.libgcc.div
                0x00009de8        0x0 c:/program files (x86)/atmel/studio/7.0/toolchain/avr8/avr8-gnu-toolchain/bin/../lib/gcc/avr/5.4.0/avrxmega6\libgcc.a(_clear_bss.o)
 .text.libgcc   0x00009de8        0x0 c:/program files (x86)/atmel/studio/7.0/toolchain/avr8/avr8-gnu-toolchain/bin/../lib/gcc/avr/5.4.0/avrxmega6\libgcc.a(_clear_bss.o)
 .text.libgcc.prologue
                0x00009de8        0x0 c:/program files (x86)/atmel/studio/7.0/toolchain/avr8/avr8-gnu-toolchain/bin/../lib/gcc/avr/5.4.0/avrxmega6\libgcc.a(_clear_bss.o)
 .text.libgcc.builtins
                0x00009de8        0x0 c:/program files (x86)/atmel/studio/7.0/toolchain/avr8/avr8-gnu-toolchain/bin/../lib/gcc/avr/5.4.0/avrxmega6\libgcc.a(_clear_bss.o)
 .text.libgcc.fmul
                0x00009de8        0x0 c:/program files (x86)/atmel/studio/7.0/toolchain/avr8/avr8-gnu-toolchain/bin/../lib/gcc/avr/5.4.0/avrxmega6\libgcc.a(_clear_bss.o)
 .text.libgcc.fixed
                0x00009de8        0x0 c:/program files (x86)/atmel/studio/7.0/toolchain/avr8/avr8-gnu-toolchain/bin/../lib/gcc/avr/5.4.0/avrxmega6\libgcc.a(_clear_bss.o)
 .text.libgcc.mul
                0x00009de8       0x16 c:/program files (x86)/atmel/studio/7.0/toolchain/avr8/avr8-gnu-toolchain/bin/../lib/gcc/avr/5.4.0/avrxmega6\libgcc.a(_muluhisi3.o)
                0x00009de8                __muluhisi3
 .text.libgcc.div
                0x00009dfe        0x0 c:/program files (x86)/atmel/studio/7.0/toolchain/avr8/avr8-gnu-toolchain/bin/../lib/gcc/avr/5.4.0/avrxmega6\libgcc.a(_muluhisi3.o)
 .text.libgcc   0x00009dfe        0x0 c:/program files (x86)/atmel/studio/7.0/toolchain/avr8/avr8-gnu-toolchain/bin/../lib/gcc/avr/5.4.0/avrxmega6\libgcc.a(_muluhisi3.o)
 .text.libgcc.prologue
                0x00009dfe        0x0 c:/program files (x86)/atmel/studio/7.0/toolchain/avr8/avr8-gnu-toolchain/bin/../lib/gcc/avr/5.4.0/avrxmega6\libgcc.a(_muluhisi3.o)
 .text.libgcc.builtins
                0x00009dfe        0x0 c:/program files (x86)/atmel/studio/7.0/toolchain/avr8/avr8-gnu-toolchain/bin/../lib/gcc/avr/5.4.0/avrxmega6\libgcc.a(_muluhisi3.o)
 .text.libgcc.fmul
                0x00009dfe        0x0 c:/program files (x86)/atmel/studio/7.0/toolchain/avr8/avr8-gnu-toolchain/bin/../lib/gcc/avr/5.4.0/avrxmega6\libgcc.a(_muluhisi3.o)
 .text.libgcc.fixed
                0x00009dfe        0x0 c:/program files (x86)/atmel/studio/7.0/toolchain/avr8/avr8-gnu-toolchain/bin/../lib/gcc/avr/5.4.0/avrxmega6\libgcc.a(_muluhisi3.o)
 .text.libgcc.mul
                0x00009dfe        0x0 c:/program files (x86)/atmel/studio/7.0/toolchain/avr8/avr8-gnu-toolchain/bin/../lib/gcc/avr/5.4.0/avrxmega6\libgcc.a(_ashrdi3.o)
 .text.libgcc.div
                0x00009dfe        0x0 c:/program files (x86)/atmel/studio/7.0/toolchain/avr8/avr8-gnu-toolchain/bin/../lib/gcc/avr/5.4.0/avrxmega6\libgcc.a(_ashrdi3.o)
 .text.libgcc   0x00009dfe        0x0 c:/program files (x86)/atmel/studio/7.0/toolchain/avr8/avr8-gnu-toolchain/bin/../lib/gcc/avr/5.4.0/avrxmega6\libgcc.a(_ashrdi3.o)
 .text.libgcc.prologue
                0x00009dfe        0x0 c:/program files (x86)/atmel/studio/7.0/toolchain/avr8/avr8-gnu-toolchain/bin/../lib/gcc/avr/5.4.0/avrxmega6\libgcc.a(_ashrdi3.o)
 .text.libgcc.builtins
                0x00009dfe       0x3c c:/program files (x86)/atmel/studio/7.0/toolchain/avr8/avr8-gnu-toolchain/bin/../lib/gcc/avr/5.4.0/avrxmega6\libgcc.a(_ashrdi3.o)
                0x00009dfe                __ashrdi3
                0x00009e02                __lshrdi3
 .text.libgcc.fmul
                0x00009e3a        0x0 c:/program files (x86)/atmel/studio/7.0/toolchain/avr8/avr8-gnu-toolchain/bin/../lib/gcc/avr/5.4.0/avrxmega6\libgcc.a(_ashrdi3.o)
 .text.libgcc.fixed
                0x00009e3a        0x0 c:/program files (x86)/atmel/studio/7.0/toolchain/avr8/avr8-gnu-toolchain/bin/../lib/gcc/avr/5.4.0/avrxmega6\libgcc.a(_ashrdi3.o)
 .text.libgcc.mul
                0x00009e3a        0x0 c:/program files (x86)/atmel/studio/7.0/toolchain/avr8/avr8-gnu-toolchain/bin/../lib/gcc/avr/5.4.0/avrxmega6\libgcc.a(_adddi3_s8.o)
 .text.libgcc.div
                0x00009e3a        0x0 c:/program files (x86)/atmel/studio/7.0/toolchain/avr8/avr8-gnu-toolchain/bin/../lib/gcc/avr/5.4.0/avrxmega6\libgcc.a(_adddi3_s8.o)
 .text.libgcc   0x00009e3a       0x18 c:/program files (x86)/atmel/studio/7.0/toolchain/avr8/avr8-gnu-toolchain/bin/../lib/gcc/avr/5.4.0/avrxmega6\libgcc.a(_adddi3_s8.o)
                0x00009e3a                __adddi3_s8
 .text.libgcc.prologue
                0x00009e52        0x0 c:/program files (x86)/atmel/studio/7.0/toolchain/avr8/avr8-gnu-toolchain/bin/../lib/gcc/avr/5.4.0/avrxmega6\libgcc.a(_adddi3_s8.o)
 .text.libgcc.builtins
                0x00009e52        0x0 c:/program files (x86)/atmel/studio/7.0/toolchain/avr8/avr8-gnu-toolchain/bin/../lib/gcc/avr/5.4.0/avrxmega6\libgcc.a(_adddi3_s8.o)
 .text.libgcc.fmul
                0x00009e52        0x0 c:/program files (x86)/atmel/studio/7.0/toolchain/avr8/avr8-gnu-toolchain/bin/../lib/gcc/avr/5.4.0/avrxmega6\libgcc.a(_adddi3_s8.o)
 .text.libgcc.fixed
                0x00009e52        0x0 c:/program files (x86)/atmel/studio/7.0/toolchain/avr8/avr8-gnu-toolchain/bin/../lib/gcc/avr/5.4.0/avrxmega6\libgcc.a(_adddi3_s8.o)
 .text.libgcc.mul
                0x00009e52        0x0 c:/program files (x86)/atmel/studio/7.0/toolchain/avr8/avr8-gnu-toolchain/bin/../lib/gcc/avr/5.4.0/avrxmega6\libgcc.a(_cmpdi2.o)
 .text.libgcc.div
                0x00009e52        0x0 c:/program files (x86)/atmel/studio/7.0/toolchain/avr8/avr8-gnu-toolchain/bin/../lib/gcc/avr/5.4.0/avrxmega6\libgcc.a(_cmpdi2.o)
 .text.libgcc   0x00009e52       0x12 c:/program files (x86)/atmel/studio/7.0/toolchain/avr8/avr8-gnu-toolchain/bin/../lib/gcc/avr/5.4.0/avrxmega6\libgcc.a(_cmpdi2.o)
                0x00009e52                __cmpdi2
 .text.libgcc.prologue
                0x00009e64        0x0 c:/program files (x86)/atmel/studio/7.0/toolchain/avr8/avr8-gnu-toolchain/bin/../lib/gcc/avr/5.4.0/avrxmega6\libgcc.a(_cmpdi2.o)
 .text.libgcc.builtins
                0x00009e64        0x0 c:/program files (x86)/atmel/studio/7.0/toolchain/avr8/avr8-gnu-toolchain/bin/../lib/gcc/avr/5.4.0/avrxmega6\libgcc.a(_cmpdi2.o)
 .text.libgcc.fmul
                0x00009e64        0x0 c:/program files (x86)/atmel/studio/7.0/toolchain/avr8/avr8-gnu-toolchain/bin/../lib/gcc/avr/5.4.0/avrxmega6\libgcc.a(_cmpdi2.o)
 .text.libgcc.fixed
                0x00009e64        0x0 c:/program files (x86)/atmel/studio/7.0/toolchain/avr8/avr8-gnu-toolchain/bin/../lib/gcc/avr/5.4.0/avrxmega6\libgcc.a(_cmpdi2.o)
 .text.libgcc.mul
                0x00009e64        0x0 c:/program files (x86)/atmel/studio/7.0/toolchain/avr8/avr8-gnu-toolchain/bin/../lib/gcc/avr/5.4.0/avrxmega6\libgcc.a(_cmpdi2_s8.o)
 .text.libgcc.div
                0x00009e64        0x0 c:/program files (x86)/atmel/studio/7.0/toolchain/avr8/avr8-gnu-toolchain/bin/../lib/gcc/avr/5.4.0/avrxmega6\libgcc.a(_cmpdi2_s8.o)
 .text.libgcc   0x00009e64       0x18 c:/program files (x86)/atmel/studio/7.0/toolchain/avr8/avr8-gnu-toolchain/bin/../lib/gcc/avr/5.4.0/avrxmega6\libgcc.a(_cmpdi2_s8.o)
                0x00009e64                __cmpdi2_s8
 .text.libgcc.prologue
                0x00009e7c        0x0 c:/program files (x86)/atmel/studio/7.0/toolchain/avr8/avr8-gnu-toolchain/bin/../lib/gcc/avr/5.4.0/avrxmega6\libgcc.a(_cmpdi2_s8.o)
 .text.libgcc.builtins
                0x00009e7c        0x0 c:/program files (x86)/atmel/studio/7.0/toolchain/avr8/avr8-gnu-toolchain/bin/../lib/gcc/avr/5.4.0/avrxmega6\libgcc.a(_cmpdi2_s8.o)
 .text.libgcc.fmul
                0x00009e7c        0x0 c:/program files (x86)/atmel/studio/7.0/toolchain/avr8/avr8-gnu-toolchain/bin/../lib/gcc/avr/5.4.0/avrxmega6\libgcc.a(_cmpdi2_s8.o)
 .text.libgcc.fixed
                0x00009e7c        0x0 c:/program files (x86)/atmel/studio/7.0/toolchain/avr8/avr8-gnu-toolchain/bin/../lib/gcc/avr/5.4.0/avrxmega6\libgcc.a(_cmpdi2_s8.o)
 .text.libgcc.mul
                0x00009e7c       0x1e c:/program files (x86)/atmel/studio/7.0/toolchain/avr8/avr8-gnu-toolchain/bin/../lib/gcc/avr/5.4.0/avrxmega6\libgcc.a(_umulhisi3.o)
                0x00009e7c                __umulhisi3
 .text.libgcc.div
                0x00009e9a        0x0 c:/program files (x86)/atmel/studio/7.0/toolchain/avr8/avr8-gnu-toolchain/bin/../lib/gcc/avr/5.4.0/avrxmega6\libgcc.a(_umulhisi3.o)
 .text.libgcc   0x00009e9a        0x0 c:/program files (x86)/atmel/studio/7.0/toolchain/avr8/avr8-gnu-toolchain/bin/../lib/gcc/avr/5.4.0/avrxmega6\libgcc.a(_umulhisi3.o)
 .text.libgcc.prologue
                0x00009e9a        0x0 c:/program files (x86)/atmel/studio/7.0/toolchain/avr8/avr8-gnu-toolchain/bin/../lib/gcc/avr/5.4.0/avrxmega6\libgcc.a(_umulhisi3.o)
 .text.libgcc.builtins
                0x00009e9a        0x0 c:/program files (x86)/atmel/studio/7.0/toolchain/avr8/avr8-gnu-toolchain/bin/../lib/gcc/avr/5.4.0/avrxmega6\libgcc.a(_umulhisi3.o)
 .text.libgcc.fmul
                0x00009e9a        0x0 c:/program files (x86)/atmel/studio/7.0/toolchain/avr8/avr8-gnu-toolchain/bin/../lib/gcc/avr/5.4.0/avrxmega6\libgcc.a(_umulhisi3.o)
 .text.libgcc.fixed
                0x00009e9a        0x0 c:/program files (x86)/atmel/studio/7.0/toolchain/avr8/avr8-gnu-toolchain/bin/../lib/gcc/avr/5.4.0/avrxmega6\libgcc.a(_umulhisi3.o)
 .text.avr-libc
                0x00009e9a      0x41c c:/program files (x86)/atmel/studio/7.0/toolchain/avr8/avr8-gnu-toolchain/bin/../lib/gcc/avr/5.4.0/../../../../avr/lib/avrxmega6\libc.a(qsort.o)
                0x00009f28                qsort
 .text.avr-libc
                0x0000a2b6       0xb4 c:/program files (x86)/atmel/studio/7.0/toolchain/avr8/avr8-gnu-toolchain/bin/../lib/gcc/avr/5.4.0/../../../../avr/lib/avrxmega6\libc.a(rand.o)
                0x0000a348                rand_r
                0x0000a34c                rand
                0x0000a354                srand
 .text.avr-libc
                0x0000a36a       0x3c c:/program files (x86)/atmel/studio/7.0/toolchain/avr8/avr8-gnu-toolchain/bin/../lib/gcc/avr/5.4.0/../../../../avr/lib/avrxmega6\libc.a(atoi.o)
                0x0000a36a                atoi
 .text.avr-libc
                0x0000a3a6      0x1b0 c:/program files (x86)/atmel/studio/7.0/toolchain/avr8/avr8-gnu-toolchain/bin/../lib/gcc/avr/5.4.0/../../../../avr/lib/avrxmega6\libc.a(ftoa_engine.o)
                0x0000a3a6                __ftoa_engine
 .text.avr-libc
                0x0000a556       0x16 c:/program files (x86)/atmel/studio/7.0/toolchain/avr8/avr8-gnu-toolchain/bin/../lib/gcc/avr/5.4.0/../../../../avr/lib/avrxmega6\libc.a(strnlen_P.o)
                0x0000a556                strnlen_P
 .text.avr-libc
                0x0000a56c       0x12 c:/program files (x86)/atmel/studio/7.0/toolchain/avr8/avr8-gnu-toolchain/bin/../lib/gcc/avr/5.4.0/../../../../avr/lib/avrxmega6\libc.a(memcpy.o)
                0x0000a56c                memcpy
 .text.avr-libc
                0x0000a57e       0x16 c:/program files (x86)/atmel/studio/7.0/toolchain/avr8/avr8-gnu-toolchain/bin/../lib/gcc/avr/5.4.0/../../../../avr/lib/avrxmega6\libc.a(strnlen.o)
                0x0000a57e                strnlen
 .text.avr-libc
                0x0000a594       0x10 c:/program files (x86)/atmel/studio/7.0/toolchain/avr8/avr8-gnu-toolchain/bin/../lib/gcc/avr/5.4.0/../../../../avr/lib/avrxmega6\libc.a(mul10.o)
                0x0000a594                __mulhi_const_10
 .text.avr-libc
                0x0000a5a4       0x96 c:/program files (x86)/atmel/studio/7.0/toolchain/avr8/avr8-gnu-toolchain/bin/../lib/gcc/avr/5.4.0/../../../../avr/lib/avrxmega6\libc.a(fdevopen.o)
                0x0000a5a4                fdevopen
 .text.avr-libc
                0x0000a63a       0x78 c:/program files (x86)/atmel/studio/7.0/toolchain/avr8/avr8-gnu-toolchain/bin/../lib/gcc/avr/5.4.0/../../../../avr/lib/avrxmega6\libc.a(fputc.o)
                0x0000a63a                fputc
 .text.avr-libc
                0x0000a6b2       0x28 c:/program files (x86)/atmel/studio/7.0/toolchain/avr8/avr8-gnu-toolchain/bin/../lib/gcc/avr/5.4.0/../../../../avr/lib/avrxmega6\libc.a(printf.o)
                0x0000a6b2                printf
 .text.avr-libc
                0x0000a6da        0xc c:/program files (x86)/atmel/studio/7.0/toolchain/avr8/avr8-gnu-toolchain/bin/../lib/gcc/avr/5.4.0/../../../../avr/lib/avrxmega6\libc.a(putchar.o)
                0x0000a6da                putchar
 .text.avr-libc
                0x0000a6e6       0x60 c:/program files (x86)/atmel/studio/7.0/toolchain/avr8/avr8-gnu-toolchain/bin/../lib/gcc/avr/5.4.0/../../../../avr/lib/avrxmega6\libc.a(puts.o)
                0x0000a6e6                puts
 .text.avr-libc
                0x0000a746       0xbc c:/program files (x86)/atmel/studio/7.0/toolchain/avr8/avr8-gnu-toolchain/bin/../lib/gcc/avr/5.4.0/../../../../avr/lib/avrxmega6\libc.a(ultoa_invert.o)
                0x0000a746                __ultoa_invert
 .text.avr-libc
                0x0000a802       0x38 c:/program files (x86)/atmel/studio/7.0/toolchain/avr8/avr8-gnu-toolchain/bin/../lib/gcc/avr/5.4.0/../../../../avr/lib/avrxmega6\libc.a(calloc.o)
                0x0000a802                calloc
 .text.avr-libc
                0x0000a83a      0x242 c:/program files (x86)/atmel/studio/7.0/toolchain/avr8/avr8-gnu-toolchain/bin/../lib/gcc/avr/5.4.0/../../../../avr/lib/avrxmega6\libc.a(malloc.o)
                0x0000a83a                malloc
                0x0000a96a                free
 .text.avr-libc
                0x0000aa7c        0xe c:/program files (x86)/atmel/studio/7.0/toolchain/avr8/avr8-gnu-toolchain/bin/../lib/gcc/avr/5.4.0/../../../../avr/lib/avrxmega6\libc.a(memset.o)
                0x0000aa7c                memset
 .text.libgcc.mul
                0x0000aa8a        0x0 c:/program files (x86)/atmel/studio/7.0/toolchain/avr8/avr8-gnu-toolchain/bin/../lib/gcc/avr/5.4.0/avrxmega6\libgcc.a(_divmodsi4.o)
 .text.libgcc.div
                0x0000aa8a       0x2e c:/program files (x86)/atmel/studio/7.0/toolchain/avr8/avr8-gnu-toolchain/bin/../lib/gcc/avr/5.4.0/avrxmega6\libgcc.a(_divmodsi4.o)
                0x0000aa8a                __divmodsi4
 .text.libgcc   0x0000aab8        0x0 c:/program files (x86)/atmel/studio/7.0/toolchain/avr8/avr8-gnu-toolchain/bin/../lib/gcc/avr/5.4.0/avrxmega6\libgcc.a(_divmodsi4.o)
 .text.libgcc.prologue
                0x0000aab8        0x0 c:/program files (x86)/atmel/studio/7.0/toolchain/avr8/avr8-gnu-toolchain/bin/../lib/gcc/avr/5.4.0/avrxmega6\libgcc.a(_divmodsi4.o)
 .text.libgcc.builtins
                0x0000aab8        0x0 c:/program files (x86)/atmel/studio/7.0/toolchain/avr8/avr8-gnu-toolchain/bin/../lib/gcc/avr/5.4.0/avrxmega6\libgcc.a(_divmodsi4.o)
 .text.libgcc.fmul
                0x0000aab8        0x0 c:/program files (x86)/atmel/studio/7.0/toolchain/avr8/avr8-gnu-toolchain/bin/../lib/gcc/avr/5.4.0/avrxmega6\libgcc.a(_divmodsi4.o)
 .text.libgcc.fixed
                0x0000aab8        0x0 c:/program files (x86)/atmel/studio/7.0/toolchain/avr8/avr8-gnu-toolchain/bin/../lib/gcc/avr/5.4.0/avrxmega6\libgcc.a(_divmodsi4.o)
 .text.libgcc.mul
                0x0000aab8        0x0 c:/program files (x86)/atmel/studio/7.0/toolchain/avr8/avr8-gnu-toolchain/bin/../lib/gcc/avr/5.4.0/avrxmega6\libgcc.a(_negsi2.o)
 .text.libgcc.div
                0x0000aab8       0x10 c:/program files (x86)/atmel/studio/7.0/toolchain/avr8/avr8-gnu-toolchain/bin/../lib/gcc/avr/5.4.0/avrxmega6\libgcc.a(_negsi2.o)
                0x0000aab8                __negsi2
 .text.libgcc   0x0000aac8        0x0 c:/program files (x86)/atmel/studio/7.0/toolchain/avr8/avr8-gnu-toolchain/bin/../lib/gcc/avr/5.4.0/avrxmega6\libgcc.a(_negsi2.o)
 .text.libgcc.prologue
                0x0000aac8        0x0 c:/program files (x86)/atmel/studio/7.0/toolchain/avr8/avr8-gnu-toolchain/bin/../lib/gcc/avr/5.4.0/avrxmega6\libgcc.a(_negsi2.o)
 .text.libgcc.builtins
                0x0000aac8        0x0 c:/program files (x86)/atmel/studio/7.0/toolchain/avr8/avr8-gnu-toolchain/bin/../lib/gcc/avr/5.4.0/avrxmega6\libgcc.a(_negsi2.o)
 .text.libgcc.fmul
                0x0000aac8        0x0 c:/program files (x86)/atmel/studio/7.0/toolchain/avr8/avr8-gnu-toolchain/bin/../lib/gcc/avr/5.4.0/avrxmega6\libgcc.a(_negsi2.o)
 .text.libgcc.fixed
                0x0000aac8        0x0 c:/program files (x86)/atmel/studio/7.0/toolchain/avr8/avr8-gnu-toolchain/bin/../lib/gcc/avr/5.4.0/avrxmega6\libgcc.a(_negsi2.o)
 .text.libgcc.mul
                0x0000aac8       0x10 c:/program files (x86)/atmel/studio/7.0/toolchain/avr8/avr8-gnu-toolchain/bin/../lib/gcc/avr/5.4.0/avrxmega6\libgcc.a(_mulshisi3.o)
                0x0000aac8                __mulshisi3
                0x0000aace                __mulohisi3
 .text.libgcc.div
                0x0000aad8        0x0 c:/program files (x86)/atmel/studio/7.0/toolchain/avr8/avr8-gnu-toolchain/bin/../lib/gcc/avr/5.4.0/avrxmega6\libgcc.a(_mulshisi3.o)
 .text.libgcc   0x0000aad8        0x0 c:/program files (x86)/atmel/studio/7.0/toolchain/avr8/avr8-gnu-toolchain/bin/../lib/gcc/avr/5.4.0/avrxmega6\libgcc.a(_mulshisi3.o)
 .text.libgcc.prologue
                0x0000aad8        0x0 c:/program files (x86)/atmel/studio/7.0/toolchain/avr8/avr8-gnu-toolchain/bin/../lib/gcc/avr/5.4.0/avrxmega6\libgcc.a(_mulshisi3.o)
 .text.libgcc.builtins
                0x0000aad8        0x0 c:/program files (x86)/atmel/studio/7.0/toolchain/avr8/avr8-gnu-toolchain/bin/../lib/gcc/avr/5.4.0/avrxmega6\libgcc.a(_mulshisi3.o)
 .text.libgcc.fmul
                0x0000aad8        0x0 c:/program files (x86)/atmel/studio/7.0/toolchain/avr8/avr8-gnu-toolchain/bin/../lib/gcc/avr/5.4.0/avrxmega6\libgcc.a(_mulshisi3.o)
 .text.libgcc.fixed
                0x0000aad8        0x0 c:/program files (x86)/atmel/studio/7.0/toolchain/avr8/avr8-gnu-toolchain/bin/../lib/gcc/avr/5.4.0/avrxmega6\libgcc.a(_mulshisi3.o)
                0x0000aad8                . = ALIGN (0x2)
 *(.fini9)
 .fini9         0x0000aad8        0x0 c:/program files (x86)/atmel/studio/7.0/toolchain/avr8/avr8-gnu-toolchain/bin/../lib/gcc/avr/5.4.0/avrxmega6\libgcc.a(_exit.o)
                0x0000aad8                _exit
                0x0000aad8                exit
 *(.fini9)
 *(.fini8)
 *(.fini8)
 *(.fini7)
 *(.fini7)
 *(.fini6)
 *(.fini6)
 *(.fini5)
 *(.fini5)
 *(.fini4)
 *(.fini4)
 *(.fini3)
 *(.fini3)
 *(.fini2)
 *(.fini2)
 *(.fini1)
 *(.fini1)
 *(.fini0)
 .fini0         0x0000aad8        0x4 c:/program files (x86)/atmel/studio/7.0/toolchain/avr8/avr8-gnu-toolchain/bin/../lib/gcc/avr/5.4.0/avrxmega6\libgcc.a(_exit.o)
 *(.fini0)
                0x0000aadc                _etext = .

.data           0x00802000      0xfbe load address 0x0000aadc
                0x00802000                PROVIDE (__data_start, .)
 *(.data)
 .data          0x00802000        0x0 c:/program files (x86)/atmel/studio/7.0/toolchain/avr8/avr8-gnu-toolchain/bin/../lib/gcc/avr/5.4.0/../../../../avr/lib/avrxmega6/crtatxmega256a3.o
 .data          0x00802000        0x0 c:/program files (x86)/atmel/studio/7.0/toolchain/avr8/avr8-gnu-toolchain/bin/../lib/gcc/avr/5.4.0/../../../../avr/lib/avrxmega6\libprintf_flt.a(vfprintf_flt.o)
 .data          0x00802000       0x3e ./rtb_eval_app.o
                0x00802000                build_string
                0x0080203a                req_addr
                0x0080203c                z_state
                0x0080203d                gate_way_addr_mode
 .data          0x0080203e        0x0 ./rtb_eval_app_param.o
 .data          0x0080203e        0x0 ./rtb_eval_app_ranging.o
 .data          0x0080203e        0x0 ./sio_handler.o
 .data          0x0080203e        0x0 ./pal_uart.o
 .data          0x0080203e        0x0 ./pal_sio_hub.o
 .data          0x0080203e        0x0 ./pal_irq.o
 .data          0x0080203e        0x0 ./pal.o
 .data          0x0080203e        0x0 ./pal_timer.o
 .data          0x0080203e        0x0 ./pal_board.o
 .data          0x0080203e        0x0 ./pal_utils.o
 .data          0x0080203e        0x0 ./pal_trx_access.o
 .data          0x0080203e        0x0 ./bmm.o
 .data          0x0080203e        0x0 ./qmm.o
 .data          0x0080203e        0x0 ./tal.o
 .data          0x0080203e        0x0 ./tal_rx.o
 .data          0x0080203e        0x0 ./tal_tx.o
 .data          0x0080203e        0x0 ./tal_ed.o
 .data          0x0080203e        0x0 ./tal_slotted_csma.o
 .data          0x0080203e        0x0 ./tal_pib.o
 .data          0x0080203e        0x0 ./tal_init.o
 .data          0x0080203e        0x0 ./tal_irq_handler.o
 .data          0x0080203e        0x0 ./tal_pwr_mgmt.o
 .data          0x0080203e        0x0 ./tal_rx_enable.o
 .data          0x0080203e        0x0 ./mac_api.o
 .data          0x0080203e        0x0 ./mac_associate.o
 .data          0x0080203e        0x0 ./mac_beacon.o
 .data          0x0080203e        0x0 ./mac_callback_wrapper.o
 .data          0x0080203e        0x0 ./mac_data_extract_mhr.o
 .data          0x0080203e        0x0 ./mac_data_ind.o
 .data          0x0080203e        0x0 ./mac_data_req.o
 .data          0x0080203e        0x0 ./mac_dispatcher.o
 .data          0x0080203e        0x0 ./mac.o
 .data          0x0080203e        0x0 ./mac_mcps_data.o
 .data          0x0080203e        0x0 ./mac_misc.o
 .data          0x0080203e        0x0 ./mac_orphan.o
 .data          0x0080203e        0x0 ./mac_pib.o
 .data          0x0080203e        0x0 ./mac_poll.o
 .data          0x0080203e        0x0 ./mac_process_beacon_frame.o
 .data          0x0080203e        0x0 ./mac_process_tal_tx_frame_status.o
 .data          0x0080203e        0x0 ./mac_rx_enable.o
 .data          0x0080203e        0x0 ./mac_scan.o
 .data          0x0080203e        0x0 ./mac_start.o
 .data          0x0080203e        0x0 ./mac_tx_coord_realignment_command.o
 .data          0x0080203e        0x1 ./rtb.o
                0x0080203e                rtb_dist_offset
 .data          0x0080203f        0x0 ./rtb_api.o
 .data          0x0080203f        0x0 ./rtb_callback_wrapper.o
 .data          0x0080203f        0x0 ./rtb_dispatcher.o
 .data          0x0080203f        0x4 ./rtb_hw_233r_xmega.o
                0x0080203f                rtb_trx_spi_port
                0x00802041                rtb_trx_spi
 .data          0x00802043        0x0 ./rtb_pib.o
 .data          0x00802043        0x0 ./rtb_rx.o
 .data          0x00802043        0x0 ./rtb_tx.o
 .data          0x00802043        0x0 ./usr_mcps_data_conf.o
 .data          0x00802043        0x0 ./usr_mcps_data_ind.o
 .data          0x00802043        0x0 ./usr_mlme_associate_conf.o
 .data          0x00802043        0x0 ./usr_mlme_associate_ind.o
 .data          0x00802043        0x0 ./usr_mlme_comm_status_ind.o
 .data          0x00802043        0x0 ./usr_mlme_get_conf.o
 .data          0x00802043        0x0 ./usr_mlme_orphan_ind.o
 .data          0x00802043        0x0 ./usr_mlme_poll_conf.o
 .data          0x00802043        0x0 ./usr_mlme_rx_enable_conf.o
 .data          0x00802043        0x0 ./usr_mlme_scan_conf.o
 .data          0x00802043        0x0 ./usr_mlme_start_conf.o
 .data          0x00802043       0x20 ../../../../../RTB/RTB_Lib/AT86RF233_ATXMEGA256A3_REB_8_1_CBB/GCC\lib_rtb_pmu_233r_remote.a(rtb_pmu_math.o)
 .data          0x00802063        0x1 ../../../../../RTB/RTB_Lib/AT86RF233_ATXMEGA256A3_REB_8_1_CBB/GCC\lib_rtb_pmu_233r_remote.a(rtb_pmu_result.o)
                0x00802063                aRTBMaxPMUVerboseLevel
 .data          0x00802064        0x0 ../../../../../RTB/RTB_Lib/AT86RF233_ATXMEGA256A3_REB_8_1_CBB/GCC\lib_rtb_pmu_233r_remote.a(rtb_pmu_233r.o)
 .data          0x00802064        0x0 c:/program files (x86)/atmel/studio/7.0/toolchain/avr8/avr8-gnu-toolchain/bin/../lib/gcc/avr/5.4.0/../../../../avr/lib/avrxmega6\libm.a(addsf3.o)
 .data          0x00802064        0x0 c:/program files (x86)/atmel/studio/7.0/toolchain/avr8/avr8-gnu-toolchain/bin/../lib/gcc/avr/5.4.0/../../../../avr/lib/avrxmega6\libm.a(addsf3x.o)
 .data          0x00802064        0x0 c:/program files (x86)/atmel/studio/7.0/toolchain/avr8/avr8-gnu-toolchain/bin/../lib/gcc/avr/5.4.0/../../../../avr/lib/avrxmega6\libm.a(ceil.o)
 .data          0x00802064        0x0 c:/program files (x86)/atmel/studio/7.0/toolchain/avr8/avr8-gnu-toolchain/bin/../lib/gcc/avr/5.4.0/../../../../avr/lib/avrxmega6\libm.a(cmpsf2.o)
 .data          0x00802064        0x0 c:/program files (x86)/atmel/studio/7.0/toolchain/avr8/avr8-gnu-toolchain/bin/../lib/gcc/avr/5.4.0/../../../../avr/lib/avrxmega6\libm.a(divsf3.o)
 .data          0x00802064        0x0 c:/program files (x86)/atmel/studio/7.0/toolchain/avr8/avr8-gnu-toolchain/bin/../lib/gcc/avr/5.4.0/../../../../avr/lib/avrxmega6\libm.a(divsf3x.o)
 .data          0x00802064        0x0 c:/program files (x86)/atmel/studio/7.0/toolchain/avr8/avr8-gnu-toolchain/bin/../lib/gcc/avr/5.4.0/../../../../avr/lib/avrxmega6\libm.a(fixsfsi.o)
 .data          0x00802064        0x0 c:/program files (x86)/atmel/studio/7.0/toolchain/avr8/avr8-gnu-toolchain/bin/../lib/gcc/avr/5.4.0/../../../../avr/lib/avrxmega6\libm.a(fixunssfsi.o)
 .data          0x00802064        0x0 c:/program files (x86)/atmel/studio/7.0/toolchain/avr8/avr8-gnu-toolchain/bin/../lib/gcc/avr/5.4.0/../../../../avr/lib/avrxmega6\libm.a(floatsisf.o)
 .data          0x00802064        0x0 c:/program files (x86)/atmel/studio/7.0/toolchain/avr8/avr8-gnu-toolchain/bin/../lib/gcc/avr/5.4.0/../../../../avr/lib/avrxmega6\libm.a(fp_cmp.o)
 .data          0x00802064        0x0 c:/program files (x86)/atmel/studio/7.0/toolchain/avr8/avr8-gnu-toolchain/bin/../lib/gcc/avr/5.4.0/../../../../avr/lib/avrxmega6\libm.a(fp_inf.o)
 .data          0x00802064        0x0 c:/program files (x86)/atmel/studio/7.0/toolchain/avr8/avr8-gnu-toolchain/bin/../lib/gcc/avr/5.4.0/../../../../avr/lib/avrxmega6\libm.a(fp_mintl.o)
 .data          0x00802064        0x0 c:/program files (x86)/atmel/studio/7.0/toolchain/avr8/avr8-gnu-toolchain/bin/../lib/gcc/avr/5.4.0/../../../../avr/lib/avrxmega6\libm.a(fp_mpack.o)
 .data          0x00802064        0x0 c:/program files (x86)/atmel/studio/7.0/toolchain/avr8/avr8-gnu-toolchain/bin/../lib/gcc/avr/5.4.0/../../../../avr/lib/avrxmega6\libm.a(fp_nan.o)
 .data          0x00802064        0x0 c:/program files (x86)/atmel/studio/7.0/toolchain/avr8/avr8-gnu-toolchain/bin/../lib/gcc/avr/5.4.0/../../../../avr/lib/avrxmega6\libm.a(fp_pscA.o)
 .data          0x00802064        0x0 c:/program files (x86)/atmel/studio/7.0/toolchain/avr8/avr8-gnu-toolchain/bin/../lib/gcc/avr/5.4.0/../../../../avr/lib/avrxmega6\libm.a(fp_pscB.o)
 .data          0x00802064        0x0 c:/program files (x86)/atmel/studio/7.0/toolchain/avr8/avr8-gnu-toolchain/bin/../lib/gcc/avr/5.4.0/../../../../avr/lib/avrxmega6\libm.a(fp_round.o)
 .data          0x00802064        0x0 c:/program files (x86)/atmel/studio/7.0/toolchain/avr8/avr8-gnu-toolchain/bin/../lib/gcc/avr/5.4.0/../../../../avr/lib/avrxmega6\libm.a(fp_split3.o)
 .data          0x00802064        0x0 c:/program files (x86)/atmel/studio/7.0/toolchain/avr8/avr8-gnu-toolchain/bin/../lib/gcc/avr/5.4.0/../../../../avr/lib/avrxmega6\libm.a(fp_trunc.o)
 .data          0x00802064        0x0 c:/program files (x86)/atmel/studio/7.0/toolchain/avr8/avr8-gnu-toolchain/bin/../lib/gcc/avr/5.4.0/../../../../avr/lib/avrxmega6\libm.a(fp_zero.o)
 .data          0x00802064        0x0 c:/program files (x86)/atmel/studio/7.0/toolchain/avr8/avr8-gnu-toolchain/bin/../lib/gcc/avr/5.4.0/../../../../avr/lib/avrxmega6\libm.a(gesf2.o)
 .data          0x00802064        0x0 c:/program files (x86)/atmel/studio/7.0/toolchain/avr8/avr8-gnu-toolchain/bin/../lib/gcc/avr/5.4.0/../../../../avr/lib/avrxmega6\libm.a(mulsf3.o)
 .data          0x00802064        0x0 c:/program files (x86)/atmel/studio/7.0/toolchain/avr8/avr8-gnu-toolchain/bin/../lib/gcc/avr/5.4.0/../../../../avr/lib/avrxmega6\libm.a(mulsf3x.o)
 .data          0x00802064        0x0 c:/program files (x86)/atmel/studio/7.0/toolchain/avr8/avr8-gnu-toolchain/bin/../lib/gcc/avr/5.4.0/../../../../avr/lib/avrxmega6\libm.a(round.o)
 .data          0x00802064        0x0 c:/program files (x86)/atmel/studio/7.0/toolchain/avr8/avr8-gnu-toolchain/bin/../lib/gcc/avr/5.4.0/avrxmega6\libgcc.a(_mulsi3.o)
 .data          0x00802064        0x0 c:/program files (x86)/atmel/studio/7.0/toolchain/avr8/avr8-gnu-toolchain/bin/../lib/gcc/avr/5.4.0/avrxmega6\libgcc.a(_udivmodhi4.o)
 .data          0x00802064        0x0 c:/program files (x86)/atmel/studio/7.0/toolchain/avr8/avr8-gnu-toolchain/bin/../lib/gcc/avr/5.4.0/avrxmega6\libgcc.a(_divmodhi4.o)
 .data          0x00802064        0x0 c:/program files (x86)/atmel/studio/7.0/toolchain/avr8/avr8-gnu-toolchain/bin/../lib/gcc/avr/5.4.0/avrxmega6\libgcc.a(_udivmodsi4.o)
 .data          0x00802064        0x0 c:/program files (x86)/atmel/studio/7.0/toolchain/avr8/avr8-gnu-toolchain/bin/../lib/gcc/avr/5.4.0/avrxmega6\libgcc.a(_exit.o)
 .data          0x00802064        0x0 c:/program files (x86)/atmel/studio/7.0/toolchain/avr8/avr8-gnu-toolchain/bin/../lib/gcc/avr/5.4.0/avrxmega6\libgcc.a(_tablejump2.o)
 .data          0x00802064        0x0 c:/program files (x86)/atmel/studio/7.0/toolchain/avr8/avr8-gnu-toolchain/bin/../lib/gcc/avr/5.4.0/avrxmega6\libgcc.a(_copy_data.o)
 .data          0x00802064        0x0 c:/program files (x86)/atmel/studio/7.0/toolchain/avr8/avr8-gnu-toolchain/bin/../lib/gcc/avr/5.4.0/avrxmega6\libgcc.a(_clear_bss.o)
 .data          0x00802064        0x0 c:/program files (x86)/atmel/studio/7.0/toolchain/avr8/avr8-gnu-toolchain/bin/../lib/gcc/avr/5.4.0/avrxmega6\libgcc.a(_muluhisi3.o)
 .data          0x00802064        0x0 c:/program files (x86)/atmel/studio/7.0/toolchain/avr8/avr8-gnu-toolchain/bin/../lib/gcc/avr/5.4.0/avrxmega6\libgcc.a(_ashrdi3.o)
 .data          0x00802064        0x0 c:/program files (x86)/atmel/studio/7.0/toolchain/avr8/avr8-gnu-toolchain/bin/../lib/gcc/avr/5.4.0/avrxmega6\libgcc.a(_adddi3_s8.o)
 .data          0x00802064        0x0 c:/program files (x86)/atmel/studio/7.0/toolchain/avr8/avr8-gnu-toolchain/bin/../lib/gcc/avr/5.4.0/avrxmega6\libgcc.a(_cmpdi2.o)
 .data          0x00802064        0x0 c:/program files (x86)/atmel/studio/7.0/toolchain/avr8/avr8-gnu-toolchain/bin/../lib/gcc/avr/5.4.0/avrxmega6\libgcc.a(_cmpdi2_s8.o)
 .data          0x00802064        0x0 c:/program files (x86)/atmel/studio/7.0/toolchain/avr8/avr8-gnu-toolchain/bin/../lib/gcc/avr/5.4.0/avrxmega6\libgcc.a(_umulhisi3.o)
 .data          0x00802064        0x0 c:/program files (x86)/atmel/studio/7.0/toolchain/avr8/avr8-gnu-toolchain/bin/../lib/gcc/avr/5.4.0/../../../../avr/lib/avrxmega6\libc.a(qsort.o)
 .data          0x00802064        0x4 c:/program files (x86)/atmel/studio/7.0/toolchain/avr8/avr8-gnu-toolchain/bin/../lib/gcc/avr/5.4.0/../../../../avr/lib/avrxmega6\libc.a(rand.o)
 .data          0x00802068        0x0 c:/program files (x86)/atmel/studio/7.0/toolchain/avr8/avr8-gnu-toolchain/bin/../lib/gcc/avr/5.4.0/../../../../avr/lib/avrxmega6\libc.a(atoi.o)
 .data          0x00802068        0x0 c:/program files (x86)/atmel/studio/7.0/toolchain/avr8/avr8-gnu-toolchain/bin/../lib/gcc/avr/5.4.0/../../../../avr/lib/avrxmega6\libc.a(ftoa_engine.o)
 .data          0x00802068        0x0 c:/program files (x86)/atmel/studio/7.0/toolchain/avr8/avr8-gnu-toolchain/bin/../lib/gcc/avr/5.4.0/../../../../avr/lib/avrxmega6\libc.a(strnlen_P.o)
 .data          0x00802068        0x0 c:/program files (x86)/atmel/studio/7.0/toolchain/avr8/avr8-gnu-toolchain/bin/../lib/gcc/avr/5.4.0/../../../../avr/lib/avrxmega6\libc.a(memcpy.o)
 .data          0x00802068        0x0 c:/program files (x86)/atmel/studio/7.0/toolchain/avr8/avr8-gnu-toolchain/bin/../lib/gcc/avr/5.4.0/../../../../avr/lib/avrxmega6\libc.a(strnlen.o)
 .data          0x00802068        0x0 c:/program files (x86)/atmel/studio/7.0/toolchain/avr8/avr8-gnu-toolchain/bin/../lib/gcc/avr/5.4.0/../../../../avr/lib/avrxmega6\libc.a(mul10.o)
 .data          0x00802068        0x0 c:/program files (x86)/atmel/studio/7.0/toolchain/avr8/avr8-gnu-toolchain/bin/../lib/gcc/avr/5.4.0/../../../../avr/lib/avrxmega6\libc.a(fdevopen.o)
 .data          0x00802068        0x0 c:/program files (x86)/atmel/studio/7.0/toolchain/avr8/avr8-gnu-toolchain/bin/../lib/gcc/avr/5.4.0/../../../../avr/lib/avrxmega6\libc.a(fputc.o)
 .data          0x00802068        0x0 c:/program files (x86)/atmel/studio/7.0/toolchain/avr8/avr8-gnu-toolchain/bin/../lib/gcc/avr/5.4.0/../../../../avr/lib/avrxmega6\libc.a(iob.o)
 .data          0x00802068        0x0 c:/program files (x86)/atmel/studio/7.0/toolchain/avr8/avr8-gnu-toolchain/bin/../lib/gcc/avr/5.4.0/../../../../avr/lib/avrxmega6\libc.a(printf.o)
 .data          0x00802068        0x0 c:/program files (x86)/atmel/studio/7.0/toolchain/avr8/avr8-gnu-toolchain/bin/../lib/gcc/avr/5.4.0/../../../../avr/lib/avrxmega6\libc.a(putchar.o)
 .data          0x00802068        0x0 c:/program files (x86)/atmel/studio/7.0/toolchain/avr8/avr8-gnu-toolchain/bin/../lib/gcc/avr/5.4.0/../../../../avr/lib/avrxmega6\libc.a(puts.o)
 .data          0x00802068        0x0 c:/program files (x86)/atmel/studio/7.0/toolchain/avr8/avr8-gnu-toolchain/bin/../lib/gcc/avr/5.4.0/../../../../avr/lib/avrxmega6\libc.a(ultoa_invert.o)
 .data          0x00802068        0x0 c:/program files (x86)/atmel/studio/7.0/toolchain/avr8/avr8-gnu-toolchain/bin/../lib/gcc/avr/5.4.0/../../../../avr/lib/avrxmega6\libc.a(calloc.o)
 .data          0x00802068        0x6 c:/program files (x86)/atmel/studio/7.0/toolchain/avr8/avr8-gnu-toolchain/bin/../lib/gcc/avr/5.4.0/../../../../avr/lib/avrxmega6\libc.a(malloc.o)
                0x00802068                __malloc_heap_end
                0x0080206a                __malloc_heap_start
                0x0080206c                __malloc_margin
 .data          0x0080206e        0x0 c:/program files (x86)/atmel/studio/7.0/toolchain/avr8/avr8-gnu-toolchain/bin/../lib/gcc/avr/5.4.0/../../../../avr/lib/avrxmega6\libc.a(memset.o)
 .data          0x0080206e        0x0 c:/program files (x86)/atmel/studio/7.0/toolchain/avr8/avr8-gnu-toolchain/bin/../lib/gcc/avr/5.4.0/avrxmega6\libgcc.a(_divmodsi4.o)
 .data          0x0080206e        0x0 c:/program files (x86)/atmel/studio/7.0/toolchain/avr8/avr8-gnu-toolchain/bin/../lib/gcc/avr/5.4.0/avrxmega6\libgcc.a(_negsi2.o)
 .data          0x0080206e        0x0 c:/program files (x86)/atmel/studio/7.0/toolchain/avr8/avr8-gnu-toolchain/bin/../lib/gcc/avr/5.4.0/avrxmega6\libgcc.a(_mulshisi3.o)
 *(.data*)
 *(.gnu.linkonce.d*)
 *(.rodata)
 .rodata        0x0080206e        0x8 ./tal_tx.o
 *(.rodata*)
 .rodata.str1.1
                0x00802076      0x80c ./rtb_eval_app.o
 .rodata.str1.1
                0x00802882      0x50d ./rtb_eval_app_param.o
 .rodata.str1.1
                0x00802d8f      0x22f ./rtb_eval_app_ranging.o
                                0x257 (size before relaxing)
 *(.gnu.linkonce.r*)
                0x00802fbe                . = ALIGN (0x2)
                0x00802fbe                _edata = .
                0x00802fbe                PROVIDE (__data_end, .)

.bss            0x00802fbe     0x12dc
                0x00802fbe                PROVIDE (__bss_start, .)
 *(.bss)
 .bss           0x00802fbe        0x0 c:/program files (x86)/atmel/studio/7.0/toolchain/avr8/avr8-gnu-toolchain/bin/../lib/gcc/avr/5.4.0/../../../../avr/lib/avrxmega6/crtatxmega256a3.o
 .bss           0x00802fbe        0x0 c:/program files (x86)/atmel/studio/7.0/toolchain/avr8/avr8-gnu-toolchain/bin/../lib/gcc/avr/5.4.0/../../../../avr/lib/avrxmega6\libprintf_flt.a(vfprintf_flt.o)
 .bss           0x00802fbe        0xa ./rtb_eval_app.o
                0x00802fbe                time_history_idx
                0x00802fbf                time_history
                0x00802fc3                cont_ranging_ongoing
                0x00802fc4                z_mode
                0x00802fc5                app_state
 .bss           0x00802fc8        0x0 ./rtb_eval_app_param.o
 .bss           0x00802fc8       0x73 ./rtb_eval_app_ranging.o
 .bss           0x0080303b        0x0 ./sio_handler.o
 .bss           0x0080303b        0x0 ./pal_uart.o
 .bss           0x0080303b        0x0 ./pal_sio_hub.o
 .bss           0x0080303b        0x2 ./pal_irq.o
 .bss           0x0080303d        0x0 ./pal.o
 .bss           0x0080303d        0x5 ./pal_timer.o
 .bss           0x00803042        0x0 ./pal_board.o
 .bss           0x00803042        0x0 ./pal_utils.o
 .bss           0x00803042        0x0 ./pal_trx_access.o
 .bss           0x00803042      0x43b ./bmm.o
 .bss           0x0080347d        0x0 ./qmm.o
 .bss           0x0080347d        0x2 ./tal.o
                0x0080347d                tal_rx_buffer
 .bss           0x0080347f        0x0 ./tal_rx.o
 .bss           0x0080347f        0x1 ./tal_tx.o
 .bss           0x00803480        0x0 ./tal_ed.o
 .bss           0x00803480        0x0 ./tal_slotted_csma.o
 .bss           0x00803480        0x0 ./tal_pib.o
 .bss           0x00803480        0x0 ./tal_init.o
 .bss           0x00803480        0x0 ./tal_irq_handler.o
 .bss           0x00803480        0x0 ./tal_pwr_mgmt.o
 .bss           0x00803480        0x0 ./tal_rx_enable.o
 .bss           0x00803480        0x0 ./mac_api.o
 .bss           0x00803480        0x0 ./mac_associate.o
 .bss           0x00803480        0x0 ./mac_beacon.o
 .bss           0x00803480        0x0 ./mac_callback_wrapper.o
 .bss           0x00803480        0x0 ./mac_data_extract_mhr.o
 .bss           0x00803480        0x0 ./mac_data_ind.o
 .bss           0x00803480        0x0 ./mac_data_req.o
 .bss           0x00803480        0x0 ./mac_dispatcher.o
 .bss           0x00803480        0x0 ./mac.o
 .bss           0x00803480        0x0 ./mac_mcps_data.o
 .bss           0x00803480        0x0 ./mac_misc.o
 .bss           0x00803480        0x0 ./mac_orphan.o
 .bss           0x00803480        0x1 ./mac_pib.o
 .bss           0x00803481        0x0 ./mac_poll.o
 .bss           0x00803481        0x0 ./mac_process_beacon_frame.o
 .bss           0x00803481        0x0 ./mac_process_tal_tx_frame_status.o
 .bss           0x00803481        0x0 ./mac_rx_enable.o
 .bss           0x00803481        0x0 ./mac_scan.o
 .bss           0x00803481        0x0 ./mac_start.o
 .bss           0x00803481        0x0 ./mac_tx_coord_realignment_command.o
 .bss           0x00803481        0x6 ./rtb.o
                0x00803481                rtb_tx_in_progress
                0x00803482                timer_is_synced
                0x00803483                range_confirm_msg_ptr
                0x00803485                rtb_state
                0x00803486                rtb_role
 .bss           0x00803487        0x0 ./rtb_api.o
 .bss           0x00803487        0x0 ./rtb_callback_wrapper.o
 .bss           0x00803487        0x0 ./rtb_dispatcher.o
 .bss           0x00803487        0x0 ./rtb_hw_233r_xmega.o
 .bss           0x00803487        0x1 ./rtb_pib.o
 .bss           0x00803488        0x0 ./rtb_rx.o
 .bss           0x00803488        0x0 ./rtb_tx.o
 .bss           0x00803488        0x0 ./usr_mcps_data_conf.o
 .bss           0x00803488        0x0 ./usr_mcps_data_ind.o
 .bss           0x00803488        0x0 ./usr_mlme_associate_conf.o
 .bss           0x00803488        0x0 ./usr_mlme_associate_ind.o
 .bss           0x00803488        0x0 ./usr_mlme_comm_status_ind.o
 .bss           0x00803488        0x0 ./usr_mlme_get_conf.o
 .bss           0x00803488        0x0 ./usr_mlme_orphan_ind.o
 .bss           0x00803488        0x0 ./usr_mlme_poll_conf.o
 .bss           0x00803488        0x0 ./usr_mlme_rx_enable_conf.o
 .bss           0x00803488        0x0 ./usr_mlme_scan_conf.o
 .bss           0x00803488        0x0 ./usr_mlme_start_conf.o
 .bss           0x00803488        0x0 ../../../../../RTB/RTB_Lib/AT86RF233_ATXMEGA256A3_REB_8_1_CBB/GCC\lib_rtb_pmu_233r_remote.a(rtb_pmu_math.o)
 .bss           0x00803488        0x0 ../../../../../RTB/RTB_Lib/AT86RF233_ATXMEGA256A3_REB_8_1_CBB/GCC\lib_rtb_pmu_233r_remote.a(rtb_pmu_result.o)
 .bss           0x00803488        0x0 ../../../../../RTB/RTB_Lib/AT86RF233_ATXMEGA256A3_REB_8_1_CBB/GCC\lib_rtb_pmu_233r_remote.a(rtb_pmu_233r.o)
 .bss           0x00803488        0x0 c:/program files (x86)/atmel/studio/7.0/toolchain/avr8/avr8-gnu-toolchain/bin/../lib/gcc/avr/5.4.0/../../../../avr/lib/avrxmega6\libm.a(addsf3.o)
 .bss           0x00803488        0x0 c:/program files (x86)/atmel/studio/7.0/toolchain/avr8/avr8-gnu-toolchain/bin/../lib/gcc/avr/5.4.0/../../../../avr/lib/avrxmega6\libm.a(addsf3x.o)
 .bss           0x00803488        0x0 c:/program files (x86)/atmel/studio/7.0/toolchain/avr8/avr8-gnu-toolchain/bin/../lib/gcc/avr/5.4.0/../../../../avr/lib/avrxmega6\libm.a(ceil.o)
 .bss           0x00803488        0x0 c:/program files (x86)/atmel/studio/7.0/toolchain/avr8/avr8-gnu-toolchain/bin/../lib/gcc/avr/5.4.0/../../../../avr/lib/avrxmega6\libm.a(cmpsf2.o)
 .bss           0x00803488        0x0 c:/program files (x86)/atmel/studio/7.0/toolchain/avr8/avr8-gnu-toolchain/bin/../lib/gcc/avr/5.4.0/../../../../avr/lib/avrxmega6\libm.a(divsf3.o)
 .bss           0x00803488        0x0 c:/program files (x86)/atmel/studio/7.0/toolchain/avr8/avr8-gnu-toolchain/bin/../lib/gcc/avr/5.4.0/../../../../avr/lib/avrxmega6\libm.a(divsf3x.o)
 .bss           0x00803488        0x0 c:/program files (x86)/atmel/studio/7.0/toolchain/avr8/avr8-gnu-toolchain/bin/../lib/gcc/avr/5.4.0/../../../../avr/lib/avrxmega6\libm.a(fixsfsi.o)
 .bss           0x00803488        0x0 c:/program files (x86)/atmel/studio/7.0/toolchain/avr8/avr8-gnu-toolchain/bin/../lib/gcc/avr/5.4.0/../../../../avr/lib/avrxmega6\libm.a(fixunssfsi.o)
 .bss           0x00803488        0x0 c:/program files (x86)/atmel/studio/7.0/toolchain/avr8/avr8-gnu-toolchain/bin/../lib/gcc/avr/5.4.0/../../../../avr/lib/avrxmega6\libm.a(floatsisf.o)
 .bss           0x00803488        0x0 c:/program files (x86)/atmel/studio/7.0/toolchain/avr8/avr8-gnu-toolchain/bin/../lib/gcc/avr/5.4.0/../../../../avr/lib/avrxmega6\libm.a(fp_cmp.o)
 .bss           0x00803488        0x0 c:/program files (x86)/atmel/studio/7.0/toolchain/avr8/avr8-gnu-toolchain/bin/../lib/gcc/avr/5.4.0/../../../../avr/lib/avrxmega6\libm.a(fp_inf.o)
 .bss           0x00803488        0x0 c:/program files (x86)/atmel/studio/7.0/toolchain/avr8/avr8-gnu-toolchain/bin/../lib/gcc/avr/5.4.0/../../../../avr/lib/avrxmega6\libm.a(fp_mintl.o)
 .bss           0x00803488        0x0 c:/program files (x86)/atmel/studio/7.0/toolchain/avr8/avr8-gnu-toolchain/bin/../lib/gcc/avr/5.4.0/../../../../avr/lib/avrxmega6\libm.a(fp_mpack.o)
 .bss           0x00803488        0x0 c:/program files (x86)/atmel/studio/7.0/toolchain/avr8/avr8-gnu-toolchain/bin/../lib/gcc/avr/5.4.0/../../../../avr/lib/avrxmega6\libm.a(fp_nan.o)
 .bss           0x00803488        0x0 c:/program files (x86)/atmel/studio/7.0/toolchain/avr8/avr8-gnu-toolchain/bin/../lib/gcc/avr/5.4.0/../../../../avr/lib/avrxmega6\libm.a(fp_pscA.o)
 .bss           0x00803488        0x0 c:/program files (x86)/atmel/studio/7.0/toolchain/avr8/avr8-gnu-toolchain/bin/../lib/gcc/avr/5.4.0/../../../../avr/lib/avrxmega6\libm.a(fp_pscB.o)
 .bss           0x00803488        0x0 c:/program files (x86)/atmel/studio/7.0/toolchain/avr8/avr8-gnu-toolchain/bin/../lib/gcc/avr/5.4.0/../../../../avr/lib/avrxmega6\libm.a(fp_round.o)
 .bss           0x00803488        0x0 c:/program files (x86)/atmel/studio/7.0/toolchain/avr8/avr8-gnu-toolchain/bin/../lib/gcc/avr/5.4.0/../../../../avr/lib/avrxmega6\libm.a(fp_split3.o)
 .bss           0x00803488        0x0 c:/program files (x86)/atmel/studio/7.0/toolchain/avr8/avr8-gnu-toolchain/bin/../lib/gcc/avr/5.4.0/../../../../avr/lib/avrxmega6\libm.a(fp_trunc.o)
 .bss           0x00803488        0x0 c:/program files (x86)/atmel/studio/7.0/toolchain/avr8/avr8-gnu-toolchain/bin/../lib/gcc/avr/5.4.0/../../../../avr/lib/avrxmega6\libm.a(fp_zero.o)
 .bss           0x00803488        0x0 c:/program files (x86)/atmel/studio/7.0/toolchain/avr8/avr8-gnu-toolchain/bin/../lib/gcc/avr/5.4.0/../../../../avr/lib/avrxmega6\libm.a(gesf2.o)
 .bss           0x00803488        0x0 c:/program files (x86)/atmel/studio/7.0/toolchain/avr8/avr8-gnu-toolchain/bin/../lib/gcc/avr/5.4.0/../../../../avr/lib/avrxmega6\libm.a(mulsf3.o)
 .bss           0x00803488        0x0 c:/program files (x86)/atmel/studio/7.0/toolchain/avr8/avr8-gnu-toolchain/bin/../lib/gcc/avr/5.4.0/../../../../avr/lib/avrxmega6\libm.a(mulsf3x.o)
 .bss           0x00803488        0x0 c:/program files (x86)/atmel/studio/7.0/toolchain/avr8/avr8-gnu-toolchain/bin/../lib/gcc/avr/5.4.0/../../../../avr/lib/avrxmega6\libm.a(round.o)
 .bss           0x00803488        0x0 c:/program files (x86)/atmel/studio/7.0/toolchain/avr8/avr8-gnu-toolchain/bin/../lib/gcc/avr/5.4.0/avrxmega6\libgcc.a(_mulsi3.o)
 .bss           0x00803488        0x0 c:/program files (x86)/atmel/studio/7.0/toolchain/avr8/avr8-gnu-toolchain/bin/../lib/gcc/avr/5.4.0/avrxmega6\libgcc.a(_udivmodhi4.o)
 .bss           0x00803488        0x0 c:/program files (x86)/atmel/studio/7.0/toolchain/avr8/avr8-gnu-toolchain/bin/../lib/gcc/avr/5.4.0/avrxmega6\libgcc.a(_divmodhi4.o)
 .bss           0x00803488        0x0 c:/program files (x86)/atmel/studio/7.0/toolchain/avr8/avr8-gnu-toolchain/bin/../lib/gcc/avr/5.4.0/avrxmega6\libgcc.a(_udivmodsi4.o)
 .bss           0x00803488        0x0 c:/program files (x86)/atmel/studio/7.0/toolchain/avr8/avr8-gnu-toolchain/bin/../lib/gcc/avr/5.4.0/avrxmega6\libgcc.a(_exit.o)
 .bss           0x00803488        0x0 c:/program files (x86)/atmel/studio/7.0/toolchain/avr8/avr8-gnu-toolchain/bin/../lib/gcc/avr/5.4.0/avrxmega6\libgcc.a(_tablejump2.o)
 .bss           0x00803488        0x0 c:/program files (x86)/atmel/studio/7.0/toolchain/avr8/avr8-gnu-toolchain/bin/../lib/gcc/avr/5.4.0/avrxmega6\libgcc.a(_copy_data.o)
 .bss           0x00803488        0x0 c:/program files (x86)/atmel/studio/7.0/toolchain/avr8/avr8-gnu-toolchain/bin/../lib/gcc/avr/5.4.0/avrxmega6\libgcc.a(_clear_bss.o)
 .bss           0x00803488        0x0 c:/program files (x86)/atmel/studio/7.0/toolchain/avr8/avr8-gnu-toolchain/bin/../lib/gcc/avr/5.4.0/avrxmega6\libgcc.a(_muluhisi3.o)
 .bss           0x00803488        0x0 c:/program files (x86)/atmel/studio/7.0/toolchain/avr8/avr8-gnu-toolchain/bin/../lib/gcc/avr/5.4.0/avrxmega6\libgcc.a(_ashrdi3.o)
 .bss           0x00803488        0x0 c:/program files (x86)/atmel/studio/7.0/toolchain/avr8/avr8-gnu-toolchain/bin/../lib/gcc/avr/5.4.0/avrxmega6\libgcc.a(_adddi3_s8.o)
 .bss           0x00803488        0x0 c:/program files (x86)/atmel/studio/7.0/toolchain/avr8/avr8-gnu-toolchain/bin/../lib/gcc/avr/5.4.0/avrxmega6\libgcc.a(_cmpdi2.o)
 .bss           0x00803488        0x0 c:/program files (x86)/atmel/studio/7.0/toolchain/avr8/avr8-gnu-toolchain/bin/../lib/gcc/avr/5.4.0/avrxmega6\libgcc.a(_cmpdi2_s8.o)
 .bss           0x00803488        0x0 c:/program files (x86)/atmel/studio/7.0/toolchain/avr8/avr8-gnu-toolchain/bin/../lib/gcc/avr/5.4.0/avrxmega6\libgcc.a(_umulhisi3.o)
 .bss           0x00803488        0x0 c:/program files (x86)/atmel/studio/7.0/toolchain/avr8/avr8-gnu-toolchain/bin/../lib/gcc/avr/5.4.0/../../../../avr/lib/avrxmega6\libc.a(qsort.o)
 .bss           0x00803488        0x0 c:/program files (x86)/atmel/studio/7.0/toolchain/avr8/avr8-gnu-toolchain/bin/../lib/gcc/avr/5.4.0/../../../../avr/lib/avrxmega6\libc.a(rand.o)
 .bss           0x00803488        0x0 c:/program files (x86)/atmel/studio/7.0/toolchain/avr8/avr8-gnu-toolchain/bin/../lib/gcc/avr/5.4.0/../../../../avr/lib/avrxmega6\libc.a(atoi.o)
 .bss           0x00803488        0x0 c:/program files (x86)/atmel/studio/7.0/toolchain/avr8/avr8-gnu-toolchain/bin/../lib/gcc/avr/5.4.0/../../../../avr/lib/avrxmega6\libc.a(ftoa_engine.o)
 .bss           0x00803488        0x0 c:/program files (x86)/atmel/studio/7.0/toolchain/avr8/avr8-gnu-toolchain/bin/../lib/gcc/avr/5.4.0/../../../../avr/lib/avrxmega6\libc.a(strnlen_P.o)
 .bss           0x00803488        0x0 c:/program files (x86)/atmel/studio/7.0/toolchain/avr8/avr8-gnu-toolchain/bin/../lib/gcc/avr/5.4.0/../../../../avr/lib/avrxmega6\libc.a(memcpy.o)
 .bss           0x00803488        0x0 c:/program files (x86)/atmel/studio/7.0/toolchain/avr8/avr8-gnu-toolchain/bin/../lib/gcc/avr/5.4.0/../../../../avr/lib/avrxmega6\libc.a(strnlen.o)
 .bss           0x00803488        0x0 c:/program files (x86)/atmel/studio/7.0/toolchain/avr8/avr8-gnu-toolchain/bin/../lib/gcc/avr/5.4.0/../../../../avr/lib/avrxmega6\libc.a(mul10.o)
 .bss           0x00803488        0x0 c:/program files (x86)/atmel/studio/7.0/toolchain/avr8/avr8-gnu-toolchain/bin/../lib/gcc/avr/5.4.0/../../../../avr/lib/avrxmega6\libc.a(fdevopen.o)
 .bss           0x00803488        0x0 c:/program files (x86)/atmel/studio/7.0/toolchain/avr8/avr8-gnu-toolchain/bin/../lib/gcc/avr/5.4.0/../../../../avr/lib/avrxmega6\libc.a(fputc.o)
 .bss           0x00803488        0x0 c:/program files (x86)/atmel/studio/7.0/toolchain/avr8/avr8-gnu-toolchain/bin/../lib/gcc/avr/5.4.0/../../../../avr/lib/avrxmega6\libc.a(iob.o)
 .bss           0x00803488        0x0 c:/program files (x86)/atmel/studio/7.0/toolchain/avr8/avr8-gnu-toolchain/bin/../lib/gcc/avr/5.4.0/../../../../avr/lib/avrxmega6\libc.a(printf.o)
 .bss           0x00803488        0x0 c:/program files (x86)/atmel/studio/7.0/toolchain/avr8/avr8-gnu-toolchain/bin/../lib/gcc/avr/5.4.0/../../../../avr/lib/avrxmega6\libc.a(putchar.o)
 .bss           0x00803488        0x0 c:/program files (x86)/atmel/studio/7.0/toolchain/avr8/avr8-gnu-toolchain/bin/../lib/gcc/avr/5.4.0/../../../../avr/lib/avrxmega6\libc.a(puts.o)
 .bss           0x00803488        0x0 c:/program files (x86)/atmel/studio/7.0/toolchain/avr8/avr8-gnu-toolchain/bin/../lib/gcc/avr/5.4.0/../../../../avr/lib/avrxmega6\libc.a(ultoa_invert.o)
 .bss           0x00803488        0x0 c:/program files (x86)/atmel/studio/7.0/toolchain/avr8/avr8-gnu-toolchain/bin/../lib/gcc/avr/5.4.0/../../../../avr/lib/avrxmega6\libc.a(calloc.o)
 .bss           0x00803488        0x0 c:/program files (x86)/atmel/studio/7.0/toolchain/avr8/avr8-gnu-toolchain/bin/../lib/gcc/avr/5.4.0/../../../../avr/lib/avrxmega6\libc.a(malloc.o)
 .bss           0x00803488        0x0 c:/program files (x86)/atmel/studio/7.0/toolchain/avr8/avr8-gnu-toolchain/bin/../lib/gcc/avr/5.4.0/../../../../avr/lib/avrxmega6\libc.a(memset.o)
 .bss           0x00803488        0x0 c:/program files (x86)/atmel/studio/7.0/toolchain/avr8/avr8-gnu-toolchain/bin/../lib/gcc/avr/5.4.0/avrxmega6\libgcc.a(_divmodsi4.o)
 .bss           0x00803488        0x0 c:/program files (x86)/atmel/studio/7.0/toolchain/avr8/avr8-gnu-toolchain/bin/../lib/gcc/avr/5.4.0/avrxmega6\libgcc.a(_negsi2.o)
 .bss           0x00803488        0x0 c:/program files (x86)/atmel/studio/7.0/toolchain/avr8/avr8-gnu-toolchain/bin/../lib/gcc/avr/5.4.0/avrxmega6\libgcc.a(_mulshisi3.o)
 *(.bss*)
 *(COMMON)
 COMMON         0x00803488       0x44 ./rtb_eval_app.o
                0x00803488                app_data
                0x008034b4                build_no_end
                0x008034b6                build_no_start
                0x008034b8                build_no
 COMMON         0x008034cc       0xd8 ./pal_uart.o
                0x008034cc                uart_0_buffer
 COMMON         0x008035a4        0x2 ./pal.o
                0x008035a4                sys_time
 COMMON         0x008035a6       0x1b ./pal_timer.o
                0x008035a6                timer_array
 COMMON         0x008035c1       0x2b ./tal.o
                0x008035c1                tal_rx_on_required
                0x008035c2                tal_incoming_frame_queue
                0x008035c7                mac_frame_ptr
                0x008035c9                tal_pib
                0x008035e6                tal_trx_status
                0x008035e7                last_frame_length
                0x008035e8                tal_frame_to_tx
                0x008035ea                tal_awake_end_flag
                0x008035eb                tal_state
 COMMON         0x008035ec        0x5 ./mac_api.o
                0x008035ec                mac_nhle_q
 COMMON         0x008035f1       0x54 ./mac.o
                0x008035f1                mac_last_dsn
                0x008035f2                mac_last_src_addr
                0x008035fa                mac_poll_state
                0x008035fb                nhle_mac_q
                0x00803600                mac_scan_state
                0x00803601                mac_sync_state
                0x00803602                mac_conf_buf_ptr
                0x00803604                mac_pib
                0x00803615                mac_rx_enabled
                0x00803616                tal_mac_q
                0x0080361b                mac_parse_data
                0x00803642                mac_state
                0x00803643                mac_busy
                0x00803644                mac_radio_sleep_state
 COMMON         0x00803645       0xf2 ./rtb.o
                0x00803645                tal_rtb_q
                0x0080364a                range_status_pmu
                0x0080365f                range_status
                0x00803666                rtb_static_frame_buffer
                0x008036fc                orig_tal_transmit_power
                0x008036fd                req_result_type
                0x008036fe                range_param_pmu
                0x00803709                pmu_avg_data
                0x00803711                last_rtb_state
                0x00803712                range_param
 COMMON         0x00803737        0x1 ./rtb_hw_233r_xmega.o
                0x00803737                swOcrValue
 COMMON         0x00803738        0xe ./rtb_pib.o
                0x00803738                rtb_pib
 COMMON         0x00803746      0x1dc ../../../../../RTB/RTB_Lib/AT86RF233_ATXMEGA256A3_REB_8_1_CBB/GCC\lib_rtb_pmu_233r_remote.a(rtb_pmu_math.o)
                0x00803746                pmu_valid_vector
 COMMON         0x00803922      0x96e ../../../../../RTB/RTB_Lib/AT86RF233_ATXMEGA256A3_REB_8_1_CBB/GCC\lib_rtb_pmu_233r_remote.a(rtb_pmu_result.o)
                0x00803922                range_pmu_result_data
                0x0080428b                range_fec
 COMMON         0x00804290        0x6 c:/program files (x86)/atmel/studio/7.0/toolchain/avr8/avr8-gnu-toolchain/bin/../lib/gcc/avr/5.4.0/../../../../avr/lib/avrxmega6\libc.a(iob.o)
                0x00804290                __iob
 COMMON         0x00804296        0x4 c:/program files (x86)/atmel/studio/7.0/toolchain/avr8/avr8-gnu-toolchain/bin/../lib/gcc/avr/5.4.0/../../../../avr/lib/avrxmega6\libc.a(malloc.o)
                0x00804296                __brkval
                0x00804298                __flp
                0x0080429a                PROVIDE (__bss_end, .)
                0x0000aadc                __data_load_start = LOADADDR (.data)
                0x0000ba9a                __data_load_end = (__data_load_start + SIZEOF (.data))

.noinit         0x0080429a        0x0
                [!provide]                PROVIDE (__noinit_start, .)
 *(.noinit*)
                [!provide]                PROVIDE (__noinit_end, .)
                0x0080429a                _end = .
                0x0080429a                PROVIDE (__heap_start, .)

.eeprom         0x00810000        0x0
 *(.eeprom*)
                0x00810000                __eeprom_end = .

.fuse
 *(.fuse)
 *(.lfuse)
 *(.hfuse)
 *(.efuse)

.lock
 *(.lock*)

.signature
 *(.signature*)

.user_signatures
 *(.user_signatures*)

.stab
 *(.stab)

.stabstr
 *(.stabstr)

.stab.excl
 *(.stab.excl)

.stab.exclstr
 *(.stab.exclstr)

.stab.index
 *(.stab.index)

.stab.indexstr
 *(.stab.indexstr)

.comment        0x00000000       0x5c
 *(.comment)
 .comment       0x00000000       0x2c c:/program files (x86)/atmel/studio/7.0/toolchain/avr8/avr8-gnu-toolchain/bin/../lib/gcc/avr/5.4.0/../../../../avr/lib/avrxmega6\libprintf_flt.a(vfprintf_flt.o)
                                 0x2d (size before relaxing)
 .comment       0x0000002c       0x30 ./rtb_eval_app.o
                                 0x31 (size before relaxing)
 .comment       0x0000005c       0x31 ./rtb_eval_app_param.o
 .comment       0x0000005c       0x31 ./rtb_eval_app_ranging.o
 .comment       0x0000005c       0x31 ./sio_handler.o
 .comment       0x0000005c       0x31 ./pal_uart.o
 .comment       0x0000005c       0x31 ./pal_sio_hub.o
 .comment       0x0000005c       0x31 ./pal_irq.o
 .comment       0x0000005c       0x31 ./pal.o
 .comment       0x0000005c       0x31 ./pal_timer.o
 .comment       0x0000005c       0x31 ./pal_board.o
 .comment       0x0000005c       0x31 ./pal_utils.o
 .comment       0x0000005c       0x31 ./pal_trx_access.o
 .comment       0x0000005c       0x31 ./bmm.o
 .comment       0x0000005c       0x31 ./qmm.o
 .comment       0x0000005c       0x31 ./tal.o
 .comment       0x0000005c       0x31 ./tal_rx.o
 .comment       0x0000005c       0x31 ./tal_tx.o
 .comment       0x0000005c       0x31 ./tal_ed.o
 .comment       0x0000005c       0x31 ./tal_slotted_csma.o
 .comment       0x0000005c       0x31 ./tal_pib.o
 .comment       0x0000005c       0x31 ./tal_init.o
 .comment       0x0000005c       0x31 ./tal_irq_handler.o
 .comment       0x0000005c       0x31 ./tal_pwr_mgmt.o
 .comment       0x0000005c       0x31 ./tal_rx_enable.o
 .comment       0x0000005c       0x31 ./mac_api.o
 .comment       0x0000005c       0x31 ./mac_associate.o
 .comment       0x0000005c       0x31 ./mac_beacon.o
 .comment       0x0000005c       0x31 ./mac_callback_wrapper.o
 .comment       0x0000005c       0x31 ./mac_data_extract_mhr.o
 .comment       0x0000005c       0x31 ./mac_data_ind.o
 .comment       0x0000005c       0x31 ./mac_data_req.o
 .comment       0x0000005c       0x31 ./mac_dispatcher.o
 .comment       0x0000005c       0x31 ./mac.o
 .comment       0x0000005c       0x31 ./mac_mcps_data.o
 .comment       0x0000005c       0x31 ./mac_misc.o
 .comment       0x0000005c       0x31 ./mac_orphan.o
 .comment       0x0000005c       0x31 ./mac_pib.o
 .comment       0x0000005c       0x31 ./mac_poll.o
 .comment       0x0000005c       0x31 ./mac_process_beacon_frame.o
 .comment       0x0000005c       0x31 ./mac_process_tal_tx_frame_status.o
 .comment       0x0000005c       0x31 ./mac_rx_enable.o
 .comment       0x0000005c       0x31 ./mac_scan.o
 .comment       0x0000005c       0x31 ./mac_start.o
 .comment       0x0000005c       0x31 ./mac_tx_coord_realignment_command.o
 .comment       0x0000005c       0x31 ./rtb.o
 .comment       0x0000005c       0x31 ./rtb_api.o
 .comment       0x0000005c       0x31 ./rtb_callback_wrapper.o
 .comment       0x0000005c       0x31 ./rtb_dispatcher.o
 .comment       0x0000005c       0x31 ./rtb_hw_233r_xmega.o
 .comment       0x0000005c       0x31 ./rtb_pib.o
 .comment       0x0000005c       0x31 ./rtb_rx.o
 .comment       0x0000005c       0x31 ./rtb_tx.o
 .comment       0x0000005c       0x31 ./usr_mcps_data_conf.o
 .comment       0x0000005c       0x31 ./usr_mcps_data_ind.o
 .comment       0x0000005c       0x31 ./usr_mlme_associate_conf.o
 .comment       0x0000005c       0x31 ./usr_mlme_associate_ind.o
 .comment       0x0000005c       0x31 ./usr_mlme_comm_status_ind.o
 .comment       0x0000005c       0x31 ./usr_mlme_get_conf.o
 .comment       0x0000005c       0x31 ./usr_mlme_orphan_ind.o
 .comment       0x0000005c       0x31 ./usr_mlme_poll_conf.o
 .comment       0x0000005c       0x31 ./usr_mlme_rx_enable_conf.o
 .comment       0x0000005c       0x31 ./usr_mlme_scan_conf.o
 .comment       0x0000005c       0x31 ./usr_mlme_start_conf.o
 .comment       0x0000005c       0x31 c:/program files (x86)/atmel/studio/7.0/toolchain/avr8/avr8-gnu-toolchain/bin/../lib/gcc/avr/5.4.0/../../../../avr/lib/avrxmega6\libc.a(qsort.o)
 .comment       0x0000005c       0x31 c:/program files (x86)/atmel/studio/7.0/toolchain/avr8/avr8-gnu-toolchain/bin/../lib/gcc/avr/5.4.0/../../../../avr/lib/avrxmega6\libc.a(rand.o)
 .comment       0x0000005c       0x31 c:/program files (x86)/atmel/studio/7.0/toolchain/avr8/avr8-gnu-toolchain/bin/../lib/gcc/avr/5.4.0/../../../../avr/lib/avrxmega6\libc.a(fdevopen.o)
 .comment       0x0000005c       0x31 c:/program files (x86)/atmel/studio/7.0/toolchain/avr8/avr8-gnu-toolchain/bin/../lib/gcc/avr/5.4.0/../../../../avr/lib/avrxmega6\libc.a(fputc.o)
 .comment       0x0000005c       0x31 c:/program files (x86)/atmel/studio/7.0/toolchain/avr8/avr8-gnu-toolchain/bin/../lib/gcc/avr/5.4.0/../../../../avr/lib/avrxmega6\libc.a(iob.o)
 .comment       0x0000005c       0x31 c:/program files (x86)/atmel/studio/7.0/toolchain/avr8/avr8-gnu-toolchain/bin/../lib/gcc/avr/5.4.0/../../../../avr/lib/avrxmega6\libc.a(printf.o)
 .comment       0x0000005c       0x31 c:/program files (x86)/atmel/studio/7.0/toolchain/avr8/avr8-gnu-toolchain/bin/../lib/gcc/avr/5.4.0/../../../../avr/lib/avrxmega6\libc.a(putchar.o)
 .comment       0x0000005c       0x31 c:/program files (x86)/atmel/studio/7.0/toolchain/avr8/avr8-gnu-toolchain/bin/../lib/gcc/avr/5.4.0/../../../../avr/lib/avrxmega6\libc.a(puts.o)
 .comment       0x0000005c       0x31 c:/program files (x86)/atmel/studio/7.0/toolchain/avr8/avr8-gnu-toolchain/bin/../lib/gcc/avr/5.4.0/../../../../avr/lib/avrxmega6\libc.a(calloc.o)
 .comment       0x0000005c       0x31 c:/program files (x86)/atmel/studio/7.0/toolchain/avr8/avr8-gnu-toolchain/bin/../lib/gcc/avr/5.4.0/../../../../avr/lib/avrxmega6\libc.a(malloc.o)

.note.gnu.avr.deviceinfo
                0x00000000       0x40
 .note.gnu.avr.deviceinfo
                0x00000000       0x40 c:/program files (x86)/atmel/studio/7.0/toolchain/avr8/avr8-gnu-toolchain/bin/../lib/gcc/avr/5.4.0/../../../../avr/lib/avrxmega6/crtatxmega256a3.o

.note.gnu.build-id
 *(.note.gnu.build-id)

.debug
 *(.debug)

.line
 *(.line)

.debug_srcinfo
 *(.debug_srcinfo)

.debug_sfnames
 *(.debug_sfnames)

.debug_aranges  0x00000000      0x728
 *(.debug_aranges)
 .debug_aranges
                0x00000000       0x28 ./rtb_eval_app.o
 .debug_aranges
                0x00000028       0x20 ./rtb_eval_app_param.o
 .debug_aranges
                0x00000048       0x20 ./rtb_eval_app_ranging.o
 .debug_aranges
                0x00000068       0x20 ./sio_handler.o
 .debug_aranges
                0x00000088       0x20 ./pal_uart.o
 .debug_aranges
                0x000000a8       0x20 ./pal_sio_hub.o
 .debug_aranges
                0x000000c8       0x20 ./pal_irq.o
 .debug_aranges
                0x000000e8       0x20 ./pal.o
 .debug_aranges
                0x00000108       0x20 ./pal_timer.o
 .debug_aranges
                0x00000128       0x20 ./pal_board.o
 .debug_aranges
                0x00000148       0x20 ./pal_trx_access.o
 .debug_aranges
                0x00000168       0x20 ./bmm.o
 .debug_aranges
                0x00000188       0x20 ./qmm.o
 .debug_aranges
                0x000001a8       0x20 ./tal.o
 .debug_aranges
                0x000001c8       0x20 ./tal_rx.o
 .debug_aranges
                0x000001e8       0x20 ./tal_tx.o
 .debug_aranges
                0x00000208       0x18 ./tal_ed.o
 .debug_aranges
                0x00000220       0x20 ./tal_pib.o
 .debug_aranges
                0x00000240       0x20 ./tal_init.o
 .debug_aranges
                0x00000260       0x20 ./tal_irq_handler.o
 .debug_aranges
                0x00000280       0x20 ./tal_pwr_mgmt.o
 .debug_aranges
                0x000002a0       0x20 ./tal_rx_enable.o
 .debug_aranges
                0x000002c0       0x20 ./mac_api.o
 .debug_aranges
                0x000002e0       0x18 ./mac_associate.o
 .debug_aranges
                0x000002f8       0x18 ./mac_beacon.o
 .debug_aranges
                0x00000310       0x20 ./mac_callback_wrapper.o
 .debug_aranges
                0x00000330       0x20 ./mac_data_extract_mhr.o
 .debug_aranges
                0x00000350       0x20 ./mac_data_ind.o
 .debug_aranges
                0x00000370       0x18 ./mac_data_req.o
 .debug_aranges
                0x00000388       0x20 ./mac_dispatcher.o
 .debug_aranges
                0x000003a8       0x20 ./mac.o
 .debug_aranges
                0x000003c8       0x20 ./mac_mcps_data.o
 .debug_aranges
                0x000003e8       0x20 ./mac_misc.o
 .debug_aranges
                0x00000408       0x18 ./mac_orphan.o
 .debug_aranges
                0x00000420       0x20 ./mac_pib.o
 .debug_aranges
                0x00000440       0x18 ./mac_poll.o
 .debug_aranges
                0x00000458       0x18 ./mac_process_beacon_frame.o
 .debug_aranges
                0x00000470       0x20 ./mac_process_tal_tx_frame_status.o
 .debug_aranges
                0x00000490       0x18 ./mac_rx_enable.o
 .debug_aranges
                0x000004a8       0x18 ./mac_scan.o
 .debug_aranges
                0x000004c0       0x18 ./mac_start.o
 .debug_aranges
                0x000004d8       0x18 ./mac_tx_coord_realignment_command.o
 .debug_aranges
                0x000004f0       0x20 ./rtb.o
 .debug_aranges
                0x00000510       0x20 ./rtb_api.o
 .debug_aranges
                0x00000530       0x20 ./rtb_callback_wrapper.o
 .debug_aranges
                0x00000550       0x20 ./rtb_dispatcher.o
 .debug_aranges
                0x00000570       0x20 ./rtb_hw_233r_xmega.o
 .debug_aranges
                0x00000590       0x20 ./rtb_pib.o
 .debug_aranges
                0x000005b0       0x20 ./rtb_rx.o
 .debug_aranges
                0x000005d0       0x20 ./rtb_tx.o
 .debug_aranges
                0x000005f0       0x20 ./usr_mcps_data_conf.o
 .debug_aranges
                0x00000610       0x20 ./usr_mcps_data_ind.o
 .debug_aranges
                0x00000630       0x18 ./usr_mlme_associate_conf.o
 .debug_aranges
                0x00000648       0x20 ./usr_mlme_associate_ind.o
 .debug_aranges
                0x00000668       0x20 ./usr_mlme_comm_status_ind.o
 .debug_aranges
                0x00000688       0x18 ./usr_mlme_get_conf.o
 .debug_aranges
                0x000006a0       0x20 ./usr_mlme_orphan_ind.o
 .debug_aranges
                0x000006c0       0x18 ./usr_mlme_poll_conf.o
 .debug_aranges
                0x000006d8       0x18 ./usr_mlme_rx_enable_conf.o
 .debug_aranges
                0x000006f0       0x18 ./usr_mlme_scan_conf.o
 .debug_aranges
                0x00000708       0x20 ./usr_mlme_start_conf.o

.debug_pubnames
 *(.debug_pubnames)

.debug_info     0x00000000    0x19bd0
 *(.debug_info .gnu.linkonce.wi.*)
 .debug_info    0x00000000     0x2c3e c:/program files (x86)/atmel/studio/7.0/toolchain/avr8/avr8-gnu-toolchain/bin/../lib/gcc/avr/5.4.0/../../../../avr/lib/avrxmega6/crtatxmega256a3.o
 .debug_info    0x00002c3e     0x16e2 ./rtb_eval_app.o
 .debug_info    0x00004320     0x13a6 ./rtb_eval_app_param.o
 .debug_info    0x000056c6     0x1525 ./rtb_eval_app_ranging.o
 .debug_info    0x00006beb      0x355 ./sio_handler.o
 .debug_info    0x00006f40      0x4c3 ./pal_uart.o
 .debug_info    0x00007403      0x37d ./pal_sio_hub.o
 .debug_info    0x00007780      0x265 ./pal_irq.o
 .debug_info    0x000079e5      0x9e8 ./pal.o
 .debug_info    0x000083cd      0x90f ./pal_timer.o
 .debug_info    0x00008cdc      0xfd3 ./pal_board.o
 .debug_info    0x00009caf      0x589 ./pal_trx_access.o
 .debug_info    0x0000a238      0x28f ./bmm.o
 .debug_info    0x0000a4c7      0x3d7 ./qmm.o
 .debug_info    0x0000a89e      0xb5a ./tal.o
 .debug_info    0x0000b3f8      0x4ea ./tal_rx.o
 .debug_info    0x0000b8e2      0x9c8 ./tal_tx.o
 .debug_info    0x0000c2aa       0x64 ./tal_ed.o
 .debug_info    0x0000c30e      0x9f0 ./tal_pib.o
 .debug_info    0x0000ccfe      0xeef ./tal_init.o
 .debug_info    0x0000dbed      0x1d3 ./tal_irq_handler.o
 .debug_info    0x0000ddc0      0x417 ./tal_pwr_mgmt.o
 .debug_info    0x0000e1d7      0x3ec ./tal_rx_enable.o
 .debug_info    0x0000e5c3      0x907 ./mac_api.o
 .debug_info    0x0000eeca       0x64 ./mac_associate.o
 .debug_info    0x0000ef2e       0x64 ./mac_beacon.o
 .debug_info    0x0000ef92      0x583 ./mac_callback_wrapper.o
 .debug_info    0x0000f515      0x3de ./mac_data_extract_mhr.o
 .debug_info    0x0000f8f3      0x90b ./mac_data_ind.o
 .debug_info    0x000101fe       0x64 ./mac_data_req.o
 .debug_info    0x00010262      0x2ab ./mac_dispatcher.o
 .debug_info    0x0001050d      0x7de ./mac.o
 .debug_info    0x00010ceb      0xe04 ./mac_mcps_data.o
 .debug_info    0x00011aef      0xb87 ./mac_misc.o
 .debug_info    0x00012676       0x64 ./mac_orphan.o
 .debug_info    0x000126da      0x95b ./mac_pib.o
 .debug_info    0x00013035       0x64 ./mac_poll.o
 .debug_info    0x00013099       0x64 ./mac_process_beacon_frame.o
 .debug_info    0x000130fd      0x430 ./mac_process_tal_tx_frame_status.o
 .debug_info    0x0001352d       0x64 ./mac_rx_enable.o
 .debug_info    0x00013591       0x64 ./mac_scan.o
 .debug_info    0x000135f5       0x64 ./mac_start.o
 .debug_info    0x00013659       0x64 ./mac_tx_coord_realignment_command.o
 .debug_info    0x000136bd     0x17fa ./rtb.o
 .debug_info    0x00014eb7      0x4d6 ./rtb_api.o
 .debug_info    0x0001538d      0x692 ./rtb_callback_wrapper.o
 .debug_info    0x00015a1f      0x2a6 ./rtb_dispatcher.o
 .debug_info    0x00015cc5      0x9cf ./rtb_hw_233r_xmega.o
 .debug_info    0x00016694      0x892 ./rtb_pib.o
 .debug_info    0x00016f26     0x13b9 ./rtb_rx.o
 .debug_info    0x000182df     0x1176 ./rtb_tx.o
 .debug_info    0x00019455       0xa8 ./usr_mcps_data_conf.o
 .debug_info    0x000194fd      0x17d ./usr_mcps_data_ind.o
 .debug_info    0x0001967a       0x64 ./usr_mlme_associate_conf.o
 .debug_info    0x000196de       0xca ./usr_mlme_associate_ind.o
 .debug_info    0x000197a8      0x14b ./usr_mlme_comm_status_ind.o
 .debug_info    0x000198f3       0x64 ./usr_mlme_get_conf.o
 .debug_info    0x00019957       0xb2 ./usr_mlme_orphan_ind.o
 .debug_info    0x00019a09       0x64 ./usr_mlme_poll_conf.o
 .debug_info    0x00019a6d       0x64 ./usr_mlme_rx_enable_conf.o
 .debug_info    0x00019ad1       0x64 ./usr_mlme_scan_conf.o
 .debug_info    0x00019b35       0x9b ./usr_mlme_start_conf.o

.debug_abbrev   0x00000000     0x7eeb
 *(.debug_abbrev)
 .debug_abbrev  0x00000000     0x29e6 c:/program files (x86)/atmel/studio/7.0/toolchain/avr8/avr8-gnu-toolchain/bin/../lib/gcc/avr/5.4.0/../../../../avr/lib/avrxmega6/crtatxmega256a3.o
 .debug_abbrev  0x000029e6      0x40c ./rtb_eval_app.o
 .debug_abbrev  0x00002df2      0x2b0 ./rtb_eval_app_param.o
 .debug_abbrev  0x000030a2      0x3af ./rtb_eval_app_ranging.o
 .debug_abbrev  0x00003451      0x182 ./sio_handler.o
 .debug_abbrev  0x000035d3      0x1a0 ./pal_uart.o
 .debug_abbrev  0x00003773       0xda ./pal_sio_hub.o
 .debug_abbrev  0x0000384d       0xd8 ./pal_irq.o
 .debug_abbrev  0x00003925      0x2c0 ./pal.o
 .debug_abbrev  0x00003be5      0x329 ./pal_timer.o
 .debug_abbrev  0x00003f0e      0x32d ./pal_board.o
 .debug_abbrev  0x0000423b      0x1f9 ./pal_trx_access.o
 .debug_abbrev  0x00004434      0x149 ./bmm.o
 .debug_abbrev  0x0000457d      0x1c7 ./qmm.o
 .debug_abbrev  0x00004744      0x230 ./tal.o
 .debug_abbrev  0x00004974      0x1e3 ./tal_rx.o
 .debug_abbrev  0x00004b57      0x20e ./tal_tx.o
 .debug_abbrev  0x00004d65       0x26 ./tal_ed.o
 .debug_abbrev  0x00004d8b      0x22a ./tal_pib.o
 .debug_abbrev  0x00004fb5      0x27e ./tal_init.o
 .debug_abbrev  0x00005233       0xff ./tal_irq_handler.o
 .debug_abbrev  0x00005332      0x102 ./tal_pwr_mgmt.o
 .debug_abbrev  0x00005434       0xfb ./tal_rx_enable.o
 .debug_abbrev  0x0000552f      0x1ff ./mac_api.o
 .debug_abbrev  0x0000572e       0x26 ./mac_associate.o
 .debug_abbrev  0x00005754       0x26 ./mac_beacon.o
 .debug_abbrev  0x0000577a      0x1ac ./mac_callback_wrapper.o
 .debug_abbrev  0x00005926       0xfd ./mac_data_extract_mhr.o
 .debug_abbrev  0x00005a23      0x249 ./mac_data_ind.o
 .debug_abbrev  0x00005c6c       0x26 ./mac_data_req.o
 .debug_abbrev  0x00005c92      0x13c ./mac_dispatcher.o
 .debug_abbrev  0x00005dce      0x19d ./mac.o
 .debug_abbrev  0x00005f6b      0x271 ./mac_mcps_data.o
 .debug_abbrev  0x000061dc      0x2c9 ./mac_misc.o
 .debug_abbrev  0x000064a5       0x26 ./mac_orphan.o
 .debug_abbrev  0x000064cb      0x256 ./mac_pib.o
 .debug_abbrev  0x00006721       0x26 ./mac_poll.o
 .debug_abbrev  0x00006747       0x26 ./mac_process_beacon_frame.o
 .debug_abbrev  0x0000676d      0x170 ./mac_process_tal_tx_frame_status.o
 .debug_abbrev  0x000068dd       0x26 ./mac_rx_enable.o
 .debug_abbrev  0x00006903       0x26 ./mac_scan.o
 .debug_abbrev  0x00006929       0x26 ./mac_start.o
 .debug_abbrev  0x0000694f       0x26 ./mac_tx_coord_realignment_command.o
 .debug_abbrev  0x00006975      0x3bb ./rtb.o
 .debug_abbrev  0x00006d30      0x173 ./rtb_api.o
 .debug_abbrev  0x00006ea3      0x177 ./rtb_callback_wrapper.o
 .debug_abbrev  0x0000701a      0x143 ./rtb_dispatcher.o
 .debug_abbrev  0x0000715d      0x1ca ./rtb_hw_233r_xmega.o
 .debug_abbrev  0x00007327      0x23d ./rtb_pib.o
 .debug_abbrev  0x00007564      0x30b ./rtb_rx.o
 .debug_abbrev  0x0000786f      0x2f5 ./rtb_tx.o
 .debug_abbrev  0x00007b64       0x5e ./usr_mcps_data_conf.o
 .debug_abbrev  0x00007bc2       0xb0 ./usr_mcps_data_ind.o
 .debug_abbrev  0x00007c72       0x26 ./usr_mlme_associate_conf.o
 .debug_abbrev  0x00007c98       0x5e ./usr_mlme_associate_ind.o
 .debug_abbrev  0x00007cf6       0xa1 ./usr_mlme_comm_status_ind.o
 .debug_abbrev  0x00007d97       0x26 ./usr_mlme_get_conf.o
 .debug_abbrev  0x00007dbd       0x5e ./usr_mlme_orphan_ind.o
 .debug_abbrev  0x00007e1b       0x26 ./usr_mlme_poll_conf.o
 .debug_abbrev  0x00007e41       0x26 ./usr_mlme_rx_enable_conf.o
 .debug_abbrev  0x00007e67       0x26 ./usr_mlme_scan_conf.o
 .debug_abbrev  0x00007e8d       0x5e ./usr_mlme_start_conf.o

.debug_line     0x00000000     0x947e
 *(.debug_line .debug_line.* .debug_line_end)
 .debug_line    0x00000000       0x1a c:/program files (x86)/atmel/studio/7.0/toolchain/avr8/avr8-gnu-toolchain/bin/../lib/gcc/avr/5.4.0/../../../../avr/lib/avrxmega6/crtatxmega256a3.o
 .debug_line    0x0000001a      0xa32 ./rtb_eval_app.o
 .debug_line    0x00000a4c      0x982 ./rtb_eval_app_param.o
 .debug_line    0x000013ce      0x7ac ./rtb_eval_app_ranging.o
 .debug_line    0x00001b7a      0x19d ./sio_handler.o
 .debug_line    0x00001d17      0x2d0 ./pal_uart.o
 .debug_line    0x00001fe7      0x195 ./pal_sio_hub.o
 .debug_line    0x0000217c      0x184 ./pal_irq.o
 .debug_line    0x00002300      0x34d ./pal.o
 .debug_line    0x0000264d      0x624 ./pal_timer.o
 .debug_line    0x00002c71      0x4db ./pal_board.o
 .debug_line    0x0000314c        0x0 ./pal_utils.o
 .debug_line    0x0000314c      0x361 ./pal_trx_access.o
 .debug_line    0x000034ad      0x17c ./bmm.o
 .debug_line    0x00003629      0x24f ./qmm.o
 .debug_line    0x00003878      0x499 ./tal.o
 .debug_line    0x00003d11      0x277 ./tal_rx.o
 .debug_line    0x00003f88      0x348 ./tal_tx.o
 .debug_line    0x000042d0       0x1a ./tal_ed.o
 .debug_line    0x000042ea        0x0 ./tal_slotted_csma.o
 .debug_line    0x000042ea      0x44f ./tal_pib.o
 .debug_line    0x00004739      0x541 ./tal_init.o
 .debug_line    0x00004c7a      0x151 ./tal_irq_handler.o
 .debug_line    0x00004dcb      0x18c ./tal_pwr_mgmt.o
 .debug_line    0x00004f57      0x1b3 ./tal_rx_enable.o
 .debug_line    0x0000510a      0x3c7 ./mac_api.o
 .debug_line    0x000054d1       0x1a ./mac_associate.o
 .debug_line    0x000054eb       0x1a ./mac_beacon.o
 .debug_line    0x00005505      0x207 ./mac_callback_wrapper.o
 .debug_line    0x0000570c      0x1ce ./mac_data_extract_mhr.o
 .debug_line    0x000058da      0x34c ./mac_data_ind.o
 .debug_line    0x00005c26       0x1a ./mac_data_req.o
 .debug_line    0x00005c40      0x170 ./mac_dispatcher.o
 .debug_line    0x00005db0      0x246 ./mac.o
 .debug_line    0x00005ff6      0x448 ./mac_mcps_data.o
 .debug_line    0x0000643e      0x405 ./mac_misc.o
 .debug_line    0x00006843       0x1a ./mac_orphan.o
 .debug_line    0x0000685d      0x336 ./mac_pib.o
 .debug_line    0x00006b93       0x1a ./mac_poll.o
 .debug_line    0x00006bad       0x1a ./mac_process_beacon_frame.o
 .debug_line    0x00006bc7      0x18b ./mac_process_tal_tx_frame_status.o
 .debug_line    0x00006d52       0x1a ./mac_rx_enable.o
 .debug_line    0x00006d6c       0x1a ./mac_scan.o
 .debug_line    0x00006d86       0x1a ./mac_start.o
 .debug_line    0x00006da0       0x1a ./mac_tx_coord_realignment_command.o
 .debug_line    0x00006dba      0x7c1 ./rtb.o
 .debug_line    0x0000757b      0x2ce ./rtb_api.o
 .debug_line    0x00007849      0x1c9 ./rtb_callback_wrapper.o
 .debug_line    0x00007a12      0x14a ./rtb_dispatcher.o
 .debug_line    0x00007b5c      0x271 ./rtb_hw_233r_xmega.o
 .debug_line    0x00007dcd      0x31c ./rtb_pib.o
 .debug_line    0x000080e9      0x642 ./rtb_rx.o
 .debug_line    0x0000872b      0x80a ./rtb_tx.o
 .debug_line    0x00008f35       0xbb ./usr_mcps_data_conf.o
 .debug_line    0x00008ff0       0xe7 ./usr_mcps_data_ind.o
 .debug_line    0x000090d7       0x1a ./usr_mlme_associate_conf.o
 .debug_line    0x000090f1       0xbf ./usr_mlme_associate_ind.o
 .debug_line    0x000091b0       0xee ./usr_mlme_comm_status_ind.o
 .debug_line    0x0000929e       0x1a ./usr_mlme_get_conf.o
 .debug_line    0x000092b8       0xbc ./usr_mlme_orphan_ind.o
 .debug_line    0x00009374       0x1a ./usr_mlme_poll_conf.o
 .debug_line    0x0000938e       0x1a ./usr_mlme_rx_enable_conf.o
 .debug_line    0x000093a8       0x1a ./usr_mlme_scan_conf.o
 .debug_line    0x000093c2       0xbc ./usr_mlme_start_conf.o

.debug_frame    0x00000000     0x215c
 *(.debug_frame)
 .debug_frame   0x00000000      0x39c ./rtb_eval_app.o
 .debug_frame   0x0000039c      0x500 ./rtb_eval_app_param.o
 .debug_frame   0x0000089c      0x2d4 ./rtb_eval_app_ranging.o
 .debug_frame   0x00000b70       0x98 ./sio_handler.o
 .debug_frame   0x00000c08       0xb8 ./pal_uart.o
 .debug_frame   0x00000cc0       0x44 ./pal_sio_hub.o
 .debug_frame   0x00000d04       0x7c ./pal_irq.o
 .debug_frame   0x00000d80       0xe0 ./pal.o
 .debug_frame   0x00000e60      0x1ec ./pal_timer.o
 .debug_frame   0x0000104c      0x148 ./pal_board.o
 .debug_frame   0x00001194       0xc4 ./pal_trx_access.o
 .debug_frame   0x00001258       0x58 ./bmm.o
 .debug_frame   0x000012b0       0xb8 ./qmm.o
 .debug_frame   0x00001368       0x68 ./tal.o
 .debug_frame   0x000013d0       0x6c ./tal_rx.o
 .debug_frame   0x0000143c       0x60 ./tal_tx.o
 .debug_frame   0x0000149c       0x94 ./tal_pib.o
 .debug_frame   0x00001530       0xc8 ./tal_init.o
 .debug_frame   0x000015f8       0x34 ./tal_irq_handler.o
 .debug_frame   0x0000162c       0x34 ./tal_pwr_mgmt.o
 .debug_frame   0x00001660       0x24 ./tal_rx_enable.o
 .debug_frame   0x00001684       0xcc ./mac_api.o
 .debug_frame   0x00001750       0x9c ./mac_callback_wrapper.o
 .debug_frame   0x000017ec       0x38 ./mac_data_extract_mhr.o
 .debug_frame   0x00001824       0x54 ./mac_data_ind.o
 .debug_frame   0x00001878       0x24 ./mac_dispatcher.o
 .debug_frame   0x0000189c       0x3c ./mac.o
 .debug_frame   0x000018d8       0xd4 ./mac_mcps_data.o
 .debug_frame   0x000019ac       0xcc ./mac_misc.o
 .debug_frame   0x00001a78       0x94 ./mac_pib.o
 .debug_frame   0x00001b0c       0x24 ./mac_process_tal_tx_frame_status.o
 .debug_frame   0x00001b30      0x1dc ./rtb.o
 .debug_frame   0x00001d0c       0x64 ./rtb_api.o
 .debug_frame   0x00001d70       0x84 ./rtb_callback_wrapper.o
 .debug_frame   0x00001df4       0x24 ./rtb_dispatcher.o
 .debug_frame   0x00001e18       0x8c ./rtb_hw_233r_xmega.o
 .debug_frame   0x00001ea4       0x64 ./rtb_pib.o
 .debug_frame   0x00001f08       0x5c ./rtb_rx.o
 .debug_frame   0x00001f64      0x120 ./rtb_tx.o
 .debug_frame   0x00002084       0x24 ./usr_mcps_data_conf.o
 .debug_frame   0x000020a8       0x24 ./usr_mcps_data_ind.o
 .debug_frame   0x000020cc       0x24 ./usr_mlme_associate_ind.o
 .debug_frame   0x000020f0       0x24 ./usr_mlme_comm_status_ind.o
 .debug_frame   0x00002114       0x24 ./usr_mlme_orphan_ind.o
 .debug_frame   0x00002138       0x24 ./usr_mlme_start_conf.o

.debug_str      0x00000000     0x906c
 *(.debug_str)
 .debug_str     0x00000000     0x1d78 c:/program files (x86)/atmel/studio/7.0/toolchain/avr8/avr8-gnu-toolchain/bin/../lib/gcc/avr/5.4.0/../../../../avr/lib/avrxmega6/crtatxmega256a3.o
 .debug_str     0x00001d78     0x1179 ./rtb_eval_app.o
                               0x131e (size before relaxing)
 .debug_str     0x00002ef1      0x49e ./rtb_eval_app_param.o
                                0xfd9 (size before relaxing)
 .debug_str     0x0000338f      0x45d ./rtb_eval_app_ranging.o
                               0x1097 (size before relaxing)
 .debug_str     0x000037ec       0xa5 ./sio_handler.o
                                0x24b (size before relaxing)
 .debug_str     0x00003891      0x273 ./pal_uart.o
                                0x3f9 (size before relaxing)
 .debug_str     0x00003b04       0x8c ./pal_sio_hub.o
                                0x669 (size before relaxing)
 .debug_str     0x00003b90       0x84 ./pal_irq.o
                                0x2a5 (size before relaxing)
 .debug_str     0x00003c14      0x588 ./pal.o
                                0xc5a (size before relaxing)
 .debug_str     0x0000419c      0x36e ./pal_timer.o
                                0x9a6 (size before relaxing)
 .debug_str     0x0000450a     0x11c3 ./pal_board.o
                               0x19de (size before relaxing)
 .debug_str     0x000056cd       0x31 ./pal_utils.o
                                 0xfc (size before relaxing)
 .debug_str     0x000056fe       0xfc ./pal_trx_access.o
                                0x37f (size before relaxing)
 .debug_str     0x000057fa       0xeb ./bmm.o
                                0x262 (size before relaxing)
 .debug_str     0x000058e5       0xfd ./qmm.o
                                0x2ca (size before relaxing)
 .debug_str     0x000059e2      0x58b ./tal.o
                                0xa18 (size before relaxing)
 .debug_str     0x00005f6d       0xaa ./tal_rx.o
                                0x609 (size before relaxing)
 .debug_str     0x00006017      0x1a5 ./tal_tx.o
                                0xdcc (size before relaxing)
 .debug_str     0x000061bc       0x2a ./tal_ed.o
                                0x16b (size before relaxing)
 .debug_str     0x000061e6       0x34 ./tal_slotted_csma.o
                                 0xff (size before relaxing)
 .debug_str     0x0000621a      0x17c ./tal_pib.o
                                0xa55 (size before relaxing)
 .debug_str     0x00006396       0xe5 ./tal_init.o
                                0xc7f (size before relaxing)
 .debug_str     0x0000647b       0x8d ./tal_irq_handler.o
                                0x315 (size before relaxing)
 .debug_str     0x00006508       0x76 ./tal_pwr_mgmt.o
                                0x828 (size before relaxing)
 .debug_str     0x0000657e       0xf2 ./tal_rx_enable.o
                                0x843 (size before relaxing)
 .debug_str     0x00006670      0x4e7 ./mac_api.o
                                0xbda (size before relaxing)
 .debug_str     0x00006b57       0x27 ./mac_associate.o
                                0x168 (size before relaxing)
 .debug_str     0x00006b7e       0x24 ./mac_beacon.o
                                0x165 (size before relaxing)
 .debug_str     0x00006ba2      0x110 ./mac_callback_wrapper.o
                                0x68b (size before relaxing)
 .debug_str     0x00006cb2      0x32d ./mac_data_extract_mhr.o
                                0x4ff (size before relaxing)
 .debug_str     0x00006fdf      0x278 ./mac_data_ind.o
                                0xc88 (size before relaxing)
 .debug_str     0x00007257       0x26 ./mac_data_req.o
                                0x167 (size before relaxing)
 .debug_str     0x0000727d       0x56 ./mac_dispatcher.o
                                0x4d4 (size before relaxing)
 .debug_str     0x000072d3      0x1f4 ./mac.o
                                0x92c (size before relaxing)
 .debug_str     0x000074c7       0x94 ./mac_mcps_data.o
                               0x12b5 (size before relaxing)
 .debug_str     0x0000755b       0xe8 ./mac_misc.o
                                0xea2 (size before relaxing)
 .debug_str     0x00007643       0x24 ./mac_orphan.o
                                0x165 (size before relaxing)
 .debug_str     0x00007667       0x9e ./mac_pib.o
                                0xc7b (size before relaxing)
 .debug_str     0x00007705       0x22 ./mac_poll.o
                                0x163 (size before relaxing)
 .debug_str     0x00007727       0x32 ./mac_process_beacon_frame.o
                                0x173 (size before relaxing)
 .debug_str     0x00007759       0x71 ./mac_process_tal_tx_frame_status.o
                                0x875 (size before relaxing)
 .debug_str     0x000077ca       0x27 ./mac_rx_enable.o
                                0x168 (size before relaxing)
 .debug_str     0x000077f1       0x22 ./mac_scan.o
                                0x163 (size before relaxing)
 .debug_str     0x00007813       0x23 ./mac_start.o
                                0x164 (size before relaxing)
 .debug_str     0x00007836       0x3a ./mac_tx_coord_realignment_command.o
                                0x17b (size before relaxing)
 .debug_str     0x00007870      0xb0a ./rtb.o
                               0x1aea (size before relaxing)
 .debug_str     0x0000837a       0x9c ./rtb_api.o
                                0x520 (size before relaxing)
 .debug_str     0x00008416       0x63 ./rtb_callback_wrapper.o
                                0x648 (size before relaxing)
 .debug_str     0x00008479       0x49 ./rtb_dispatcher.o
                                0x548 (size before relaxing)
 .debug_str     0x000084c2      0x32c ./rtb_hw_233r_xmega.o
                                0x93a (size before relaxing)
 .debug_str     0x000087ee       0x55 ./rtb_pib.o
                                0xe48 (size before relaxing)
 .debug_str     0x00008843      0x35c ./rtb_rx.o
                               0x1bbe (size before relaxing)
 .debug_str     0x00008b9f      0x23f ./rtb_tx.o
                               0x162d (size before relaxing)
 .debug_str     0x00008dde       0x2c ./usr_mcps_data_conf.o
                                0x19a (size before relaxing)
 .debug_str     0x00008e0a       0x37 ./usr_mcps_data_ind.o
                                0x233 (size before relaxing)
 .debug_str     0x00008e41       0x31 ./usr_mlme_associate_conf.o
                                0x172 (size before relaxing)
 .debug_str     0x00008e72       0x6b ./usr_mlme_associate_ind.o
                                0x1bd (size before relaxing)
 .debug_str     0x00008edd       0x4b ./usr_mlme_comm_status_ind.o
                                0x228 (size before relaxing)
 .debug_str     0x00008f28       0x2b ./usr_mlme_get_conf.o
                                0x16c (size before relaxing)
 .debug_str     0x00008f53       0x4f ./usr_mlme_orphan_ind.o
                                0x199 (size before relaxing)
 .debug_str     0x00008fa2       0x2c ./usr_mlme_poll_conf.o
                                0x16d (size before relaxing)
 .debug_str     0x00008fce       0x31 ./usr_mlme_rx_enable_conf.o
                                0x172 (size before relaxing)
 .debug_str     0x00008fff       0x2c ./usr_mlme_scan_conf.o
                                0x16d (size before relaxing)
 .debug_str     0x0000902b       0x41 ./usr_mlme_start_conf.o
                                0x191 (size before relaxing)

.debug_loc      0x00000000     0xa6ea
 *(.debug_loc)
 .debug_loc     0x00000000      0xcfe ./rtb_eval_app.o
 .debug_loc     0x00000cfe     0x1071 ./rtb_eval_app_param.o
 .debug_loc     0x00001d6f     0x123c ./rtb_eval_app_ranging.o
 .debug_loc     0x00002fab      0x244 ./sio_handler.o
 .debug_loc     0x000031ef      0x2cf ./pal_uart.o
 .debug_loc     0x000034be      0x1b1 ./pal_sio_hub.o
 .debug_loc     0x0000366f      0x100 ./pal_irq.o
 .debug_loc     0x0000376f      0x4f0 ./pal.o
 .debug_loc     0x00003c5f      0xb5d ./pal_timer.o
 .debug_loc     0x000047bc      0x33f ./pal_board.o
 .debug_loc     0x00004afb      0x47d ./pal_trx_access.o
 .debug_loc     0x00004f78       0xc4 ./bmm.o
 .debug_loc     0x0000503c      0x41e ./qmm.o
 .debug_loc     0x0000545a      0x156 ./tal.o
 .debug_loc     0x000055b0      0x248 ./tal_rx.o
 .debug_loc     0x000057f8      0x1bc ./tal_tx.o
 .debug_loc     0x000059b4      0x6a2 ./tal_pib.o
 .debug_loc     0x00006056      0x41c ./tal_init.o
 .debug_loc     0x00006472       0x47 ./tal_irq_handler.o
 .debug_loc     0x000064b9       0x68 ./tal_pwr_mgmt.o
 .debug_loc     0x00006521       0x53 ./tal_rx_enable.o
 .debug_loc     0x00006574      0x4da ./mac_api.o
 .debug_loc     0x00006a4e      0x27c ./mac_callback_wrapper.o
 .debug_loc     0x00006cca      0x18c ./mac_data_extract_mhr.o
 .debug_loc     0x00006e56      0x3d0 ./mac_data_ind.o
 .debug_loc     0x00007226       0xce ./mac_dispatcher.o
 .debug_loc     0x000072f4       0xaf ./mac.o
 .debug_loc     0x000073a3      0x5f8 ./mac_mcps_data.o
 .debug_loc     0x0000799b      0x1fc ./mac_misc.o
 .debug_loc     0x00007b97      0x496 ./mac_pib.o
 .debug_loc     0x0000802d       0xd8 ./mac_process_tal_tx_frame_status.o
 .debug_loc     0x00008105      0x7bb ./rtb.o
 .debug_loc     0x000088c0      0x1e6 ./rtb_api.o
 .debug_loc     0x00008aa6      0x36c ./rtb_callback_wrapper.o
 .debug_loc     0x00008e12       0xc0 ./rtb_dispatcher.o
 .debug_loc     0x00008ed2       0x85 ./rtb_hw_233r_xmega.o
 .debug_loc     0x00008f57      0x2e3 ./rtb_pib.o
 .debug_loc     0x0000923a      0x45e ./rtb_rx.o
 .debug_loc     0x00009698     0x1052 ./rtb_tx.o

.debug_macinfo
 *(.debug_macinfo)

.debug_weaknames
 *(.debug_weaknames)

.debug_funcnames
 *(.debug_funcnames)

.debug_typenames
 *(.debug_typenames)

.debug_varnames
 *(.debug_varnames)

.debug_pubtypes
 *(.debug_pubtypes)

.debug_ranges   0x00000000      0x228
 *(.debug_ranges)
 .debug_ranges  0x00000000       0x90 ./rtb_eval_app.o
 .debug_ranges  0x00000090       0x10 ./rtb_eval_app_param.o
 .debug_ranges  0x000000a0       0x68 ./pal.o
 .debug_ranges  0x00000108       0x60 ./pal_timer.o
 .debug_ranges  0x00000168       0x18 ./qmm.o
 .debug_ranges  0x00000180       0x18 ./tal.o
 .debug_ranges  0x00000198       0x18 ./tal_pib.o
 .debug_ranges  0x000001b0       0x18 ./tal_init.o
 .debug_ranges  0x000001c8       0x18 ./mac_data_ind.o
 .debug_ranges  0x000001e0       0x18 ./mac_misc.o
 .debug_ranges  0x000001f8       0x18 ./rtb.o
 .debug_ranges  0x00000210       0x18 ./rtb_rx.o

.debug_macro
 *(.debug_macro)
OUTPUT(./RTB_Eval_App.elf elf32-avr)
LOAD linker stubs
